ARM GAS  C:\Users\master\AppData\Local\Temp\cckDjVFs.s 			page 1


   1              		.syntax unified
   2              		.cpu cortex-m3
   3              		.fpu softvfp
   4              		.eabi_attribute 20, 1
   5              		.eabi_attribute 21, 1
   6              		.eabi_attribute 23, 3
   7              		.eabi_attribute 24, 1
   8              		.eabi_attribute 25, 1
   9              		.eabi_attribute 26, 1
  10              		.eabi_attribute 30, 1
  11              		.eabi_attribute 34, 1
  12              		.eabi_attribute 18, 4
  13              		.thumb
  14              		.syntax unified
  15              		.file	"main.c"
  16              		.text
  17              	.Ltext0:
  18              		.cfi_sections	.debug_frame
  19              		.section	.text.MX_GPIO_Init,"ax",%progbits
  20              		.align	2
  21              		.thumb
  22              		.thumb_func
  24              	MX_GPIO_Init:
  25              	.LFB72:
  26              		.file 1 "Core/Src/main.c"
   1:Core/Src/main.c **** /* USER CODE BEGIN Header */
   2:Core/Src/main.c **** /**
   3:Core/Src/main.c ****   ******************************************************************************
   4:Core/Src/main.c ****   * @file           : main.c
   5:Core/Src/main.c ****   * @brief          : Main program body
   6:Core/Src/main.c ****   ******************************************************************************
   7:Core/Src/main.c ****   * @attention
   8:Core/Src/main.c ****   *
   9:Core/Src/main.c ****   * <h2><center>&copy; Copyright (c) 2021 STMicroelectronics.
  10:Core/Src/main.c ****   * All rights reserved.</center></h2>
  11:Core/Src/main.c ****   *
  12:Core/Src/main.c ****   * This software component is licensed by ST under BSD 3-Clause license,
  13:Core/Src/main.c ****   * the "License"; You may not use this file except in compliance with the
  14:Core/Src/main.c ****   * License. You may obtain a copy of the License at:
  15:Core/Src/main.c ****   *                        opensource.org/licenses/BSD-3-Clause
  16:Core/Src/main.c ****   *
  17:Core/Src/main.c ****   ******************************************************************************
  18:Core/Src/main.c ****   */
  19:Core/Src/main.c **** /* USER CODE END Header */
  20:Core/Src/main.c **** /* Includes ------------------------------------------------------------------*/
  21:Core/Src/main.c **** #include "main.h"
  22:Core/Src/main.c **** 
  23:Core/Src/main.c **** /* Private includes ----------------------------------------------------------*/
  24:Core/Src/main.c **** /* USER CODE BEGIN Includes */
  25:Core/Src/main.c **** #include <math.h>
  26:Core/Src/main.c **** #include "oled.h"
  27:Core/Src/main.c **** #include "mysetp.h"
  28:Core/Src/main.c **** /* USER CODE END Includes */
  29:Core/Src/main.c **** 
  30:Core/Src/main.c **** /* Private typedef -----------------------------------------------------------*/
  31:Core/Src/main.c **** /* USER CODE BEGIN PTD */
  32:Core/Src/main.c **** 
ARM GAS  C:\Users\master\AppData\Local\Temp\cckDjVFs.s 			page 2


  33:Core/Src/main.c **** /* USER CODE END PTD */
  34:Core/Src/main.c **** 
  35:Core/Src/main.c **** /* Private define ------------------------------------------------------------*/
  36:Core/Src/main.c **** /* USER CODE BEGIN PD */
  37:Core/Src/main.c **** /* USER CODE END PD */
  38:Core/Src/main.c **** 
  39:Core/Src/main.c **** /* Private macro -------------------------------------------------------------*/
  40:Core/Src/main.c **** /* USER CODE BEGIN PM */
  41:Core/Src/main.c **** 
  42:Core/Src/main.c **** /* USER CODE END PM */
  43:Core/Src/main.c **** 
  44:Core/Src/main.c **** /* Private variables ---------------------------------------------------------*/
  45:Core/Src/main.c **** I2C_HandleTypeDef hi2c1;
  46:Core/Src/main.c **** 
  47:Core/Src/main.c **** TIM_HandleTypeDef htim2;
  48:Core/Src/main.c **** 
  49:Core/Src/main.c **** UART_HandleTypeDef huart1;
  50:Core/Src/main.c **** DMA_HandleTypeDef hdma_usart1_tx;
  51:Core/Src/main.c **** 
  52:Core/Src/main.c **** DMA_HandleTypeDef hdma_memtomem_dma1_channel1;
  53:Core/Src/main.c **** DMA_HandleTypeDef hdma_memtomem_dma1_channel2;
  54:Core/Src/main.c **** /* USER CODE BEGIN PV */
  55:Core/Src/main.c **** 
  56:Core/Src/main.c **** /* USER CODE END PV */
  57:Core/Src/main.c **** 
  58:Core/Src/main.c **** /* Private function prototypes -----------------------------------------------*/
  59:Core/Src/main.c **** void SystemClock_Config(void);
  60:Core/Src/main.c **** static void MX_GPIO_Init(void);
  61:Core/Src/main.c **** static void MX_I2C1_Init(void);
  62:Core/Src/main.c **** static void MX_TIM2_Init(void);
  63:Core/Src/main.c **** static void MX_DMA_Init(void);
  64:Core/Src/main.c **** static void MX_USART1_UART_Init(void);
  65:Core/Src/main.c **** /* USER CODE BEGIN PFP */
  66:Core/Src/main.c **** 
  67:Core/Src/main.c **** /* USER CODE END PFP */
  68:Core/Src/main.c **** 
  69:Core/Src/main.c **** /* Private user code ---------------------------------------------------------*/
  70:Core/Src/main.c **** /* USER CODE BEGIN 0 */
  71:Core/Src/main.c **** 
  72:Core/Src/main.c **** /* USER CODE END 0 */
  73:Core/Src/main.c **** 
  74:Core/Src/main.c **** /**
  75:Core/Src/main.c ****   * @brief  The application entry point.
  76:Core/Src/main.c ****   * @retval int
  77:Core/Src/main.c ****   */
  78:Core/Src/main.c **** int main(void)
  79:Core/Src/main.c **** {
  80:Core/Src/main.c ****   /* USER CODE BEGIN 1 */
  81:Core/Src/main.c **** 
  82:Core/Src/main.c ****   /* USER CODE END 1 */
  83:Core/Src/main.c **** 
  84:Core/Src/main.c ****   /* MCU Configuration--------------------------------------------------------*/
  85:Core/Src/main.c **** 
  86:Core/Src/main.c ****   /* Reset of all peripherals, Initializes the Flash interface and the Systick. */
  87:Core/Src/main.c ****   HAL_Init();
  88:Core/Src/main.c **** 
  89:Core/Src/main.c ****   /* USER CODE BEGIN Init */
ARM GAS  C:\Users\master\AppData\Local\Temp\cckDjVFs.s 			page 3


  90:Core/Src/main.c **** 
  91:Core/Src/main.c ****   /* USER CODE END Init */
  92:Core/Src/main.c **** 
  93:Core/Src/main.c ****   /* Configure the system clock */
  94:Core/Src/main.c ****   SystemClock_Config();
  95:Core/Src/main.c **** 
  96:Core/Src/main.c ****   /* USER CODE BEGIN SysInit */
  97:Core/Src/main.c **** 
  98:Core/Src/main.c ****   /* USER CODE END SysInit */
  99:Core/Src/main.c **** 
 100:Core/Src/main.c ****   /* Initialize all configured peripherals */
 101:Core/Src/main.c ****   MX_GPIO_Init();
 102:Core/Src/main.c ****   MX_I2C1_Init();
 103:Core/Src/main.c ****   MX_TIM2_Init();
 104:Core/Src/main.c ****   MX_DMA_Init();
 105:Core/Src/main.c ****   MX_USART1_UART_Init();
 106:Core/Src/main.c ****   /* USER CODE BEGIN 2 */
 107:Core/Src/main.c **** 
 108:Core/Src/main.c ****   /* USER CODE END 2 */
 109:Core/Src/main.c **** 
 110:Core/Src/main.c ****   /* Infinite loop */
 111:Core/Src/main.c ****   /* USER CODE BEGIN WHILE */
 112:Core/Src/main.c ****   while (1)
 113:Core/Src/main.c ****   {
 114:Core/Src/main.c ****     /* USER CODE END WHILE */
 115:Core/Src/main.c **** 
 116:Core/Src/main.c ****     /* USER CODE BEGIN 3 */
 117:Core/Src/main.c ****     
 118:Core/Src/main.c ****     //oledINIT(&hi2c1);
 119:Core/Src/main.c ****     //HAL_GPIO_WritePin(GPIOB, GPIO_PIN_12, GPIO_PIN_SET);
 120:Core/Src/main.c ****    mysetp();
 121:Core/Src/main.c ****    
 122:Core/Src/main.c ****    while(1){}
 123:Core/Src/main.c ****   }
 124:Core/Src/main.c ****   /* USER CODE END 3 */
 125:Core/Src/main.c **** }
 126:Core/Src/main.c **** 
 127:Core/Src/main.c **** /**
 128:Core/Src/main.c ****   * @brief System Clock Configuration
 129:Core/Src/main.c ****   * @retval None
 130:Core/Src/main.c ****   */
 131:Core/Src/main.c **** void SystemClock_Config(void)
 132:Core/Src/main.c **** {
 133:Core/Src/main.c ****   RCC_OscInitTypeDef RCC_OscInitStruct = {0};
 134:Core/Src/main.c ****   RCC_ClkInitTypeDef RCC_ClkInitStruct = {0};
 135:Core/Src/main.c **** 
 136:Core/Src/main.c ****   /** Initializes the RCC Oscillators according to the specified parameters
 137:Core/Src/main.c ****   * in the RCC_OscInitTypeDef structure.
 138:Core/Src/main.c ****   */
 139:Core/Src/main.c ****   RCC_OscInitStruct.OscillatorType = RCC_OSCILLATORTYPE_HSE;
 140:Core/Src/main.c ****   RCC_OscInitStruct.HSEState = RCC_HSE_ON;
 141:Core/Src/main.c ****   RCC_OscInitStruct.HSEPredivValue = RCC_HSE_PREDIV_DIV1;
 142:Core/Src/main.c ****   RCC_OscInitStruct.HSIState = RCC_HSI_ON;
 143:Core/Src/main.c ****   RCC_OscInitStruct.PLL.PLLState = RCC_PLL_ON;
 144:Core/Src/main.c ****   RCC_OscInitStruct.PLL.PLLSource = RCC_PLLSOURCE_HSE;
 145:Core/Src/main.c ****   RCC_OscInitStruct.PLL.PLLMUL = RCC_PLL_MUL9;
 146:Core/Src/main.c ****   if (HAL_RCC_OscConfig(&RCC_OscInitStruct) != HAL_OK)
ARM GAS  C:\Users\master\AppData\Local\Temp\cckDjVFs.s 			page 4


 147:Core/Src/main.c ****   {
 148:Core/Src/main.c ****     Error_Handler();
 149:Core/Src/main.c ****   }
 150:Core/Src/main.c ****   /** Initializes the CPU, AHB and APB buses clocks
 151:Core/Src/main.c ****   */
 152:Core/Src/main.c ****   RCC_ClkInitStruct.ClockType = RCC_CLOCKTYPE_HCLK|RCC_CLOCKTYPE_SYSCLK
 153:Core/Src/main.c ****                               |RCC_CLOCKTYPE_PCLK1|RCC_CLOCKTYPE_PCLK2;
 154:Core/Src/main.c ****   RCC_ClkInitStruct.SYSCLKSource = RCC_SYSCLKSOURCE_PLLCLK;
 155:Core/Src/main.c ****   RCC_ClkInitStruct.AHBCLKDivider = RCC_SYSCLK_DIV1;
 156:Core/Src/main.c ****   RCC_ClkInitStruct.APB1CLKDivider = RCC_HCLK_DIV2;
 157:Core/Src/main.c ****   RCC_ClkInitStruct.APB2CLKDivider = RCC_HCLK_DIV1;
 158:Core/Src/main.c **** 
 159:Core/Src/main.c ****   if (HAL_RCC_ClockConfig(&RCC_ClkInitStruct, FLASH_LATENCY_2) != HAL_OK)
 160:Core/Src/main.c ****   {
 161:Core/Src/main.c ****     Error_Handler();
 162:Core/Src/main.c ****   }
 163:Core/Src/main.c **** }
 164:Core/Src/main.c **** 
 165:Core/Src/main.c **** /**
 166:Core/Src/main.c ****   * @brief I2C1 Initialization Function
 167:Core/Src/main.c ****   * @param None
 168:Core/Src/main.c ****   * @retval None
 169:Core/Src/main.c ****   */
 170:Core/Src/main.c **** static void MX_I2C1_Init(void)
 171:Core/Src/main.c **** {
 172:Core/Src/main.c **** 
 173:Core/Src/main.c ****   /* USER CODE BEGIN I2C1_Init 0 */
 174:Core/Src/main.c **** 
 175:Core/Src/main.c ****   /* USER CODE END I2C1_Init 0 */
 176:Core/Src/main.c **** 
 177:Core/Src/main.c ****   /* USER CODE BEGIN I2C1_Init 1 */
 178:Core/Src/main.c **** 
 179:Core/Src/main.c ****   /* USER CODE END I2C1_Init 1 */
 180:Core/Src/main.c ****   hi2c1.Instance = I2C1;
 181:Core/Src/main.c ****   hi2c1.Init.ClockSpeed = 400000;
 182:Core/Src/main.c ****   hi2c1.Init.DutyCycle = I2C_DUTYCYCLE_2;
 183:Core/Src/main.c ****   hi2c1.Init.OwnAddress1 = 0;
 184:Core/Src/main.c ****   hi2c1.Init.AddressingMode = I2C_ADDRESSINGMODE_7BIT;
 185:Core/Src/main.c ****   hi2c1.Init.DualAddressMode = I2C_DUALADDRESS_DISABLE;
 186:Core/Src/main.c ****   hi2c1.Init.OwnAddress2 = 0;
 187:Core/Src/main.c ****   hi2c1.Init.GeneralCallMode = I2C_GENERALCALL_DISABLE;
 188:Core/Src/main.c ****   hi2c1.Init.NoStretchMode = I2C_NOSTRETCH_DISABLE;
 189:Core/Src/main.c ****   if (HAL_I2C_Init(&hi2c1) != HAL_OK)
 190:Core/Src/main.c ****   {
 191:Core/Src/main.c ****     Error_Handler();
 192:Core/Src/main.c ****   }
 193:Core/Src/main.c ****   /* USER CODE BEGIN I2C1_Init 2 */
 194:Core/Src/main.c **** 
 195:Core/Src/main.c ****   /* USER CODE END I2C1_Init 2 */
 196:Core/Src/main.c **** 
 197:Core/Src/main.c **** }
 198:Core/Src/main.c **** 
 199:Core/Src/main.c **** /**
 200:Core/Src/main.c ****   * @brief TIM2 Initialization Function
 201:Core/Src/main.c ****   * @param None
 202:Core/Src/main.c ****   * @retval None
 203:Core/Src/main.c ****   */
ARM GAS  C:\Users\master\AppData\Local\Temp\cckDjVFs.s 			page 5


 204:Core/Src/main.c **** static void MX_TIM2_Init(void)
 205:Core/Src/main.c **** {
 206:Core/Src/main.c **** 
 207:Core/Src/main.c ****   /* USER CODE BEGIN TIM2_Init 0 */
 208:Core/Src/main.c **** 
 209:Core/Src/main.c ****   /* USER CODE END TIM2_Init 0 */
 210:Core/Src/main.c **** 
 211:Core/Src/main.c ****   TIM_ClockConfigTypeDef sClockSourceConfig = {0};
 212:Core/Src/main.c ****   TIM_MasterConfigTypeDef sMasterConfig = {0};
 213:Core/Src/main.c **** 
 214:Core/Src/main.c ****   /* USER CODE BEGIN TIM2_Init 1 */
 215:Core/Src/main.c **** 
 216:Core/Src/main.c ****   /* USER CODE END TIM2_Init 1 */
 217:Core/Src/main.c ****   htim2.Instance = TIM2;
 218:Core/Src/main.c ****   htim2.Init.Prescaler = 7199;
 219:Core/Src/main.c ****   htim2.Init.CounterMode = TIM_COUNTERMODE_UP;
 220:Core/Src/main.c ****   htim2.Init.Period = 4999;
 221:Core/Src/main.c ****   htim2.Init.ClockDivision = TIM_CLOCKDIVISION_DIV1;
 222:Core/Src/main.c ****   htim2.Init.AutoReloadPreload = TIM_AUTORELOAD_PRELOAD_ENABLE;
 223:Core/Src/main.c ****   if (HAL_TIM_Base_Init(&htim2) != HAL_OK)
 224:Core/Src/main.c ****   {
 225:Core/Src/main.c ****     Error_Handler();
 226:Core/Src/main.c ****   }
 227:Core/Src/main.c ****   sClockSourceConfig.ClockSource = TIM_CLOCKSOURCE_INTERNAL;
 228:Core/Src/main.c ****   if (HAL_TIM_ConfigClockSource(&htim2, &sClockSourceConfig) != HAL_OK)
 229:Core/Src/main.c ****   {
 230:Core/Src/main.c ****     Error_Handler();
 231:Core/Src/main.c ****   }
 232:Core/Src/main.c ****   sMasterConfig.MasterOutputTrigger = TIM_TRGO_RESET;
 233:Core/Src/main.c ****   sMasterConfig.MasterSlaveMode = TIM_MASTERSLAVEMODE_DISABLE;
 234:Core/Src/main.c ****   if (HAL_TIMEx_MasterConfigSynchronization(&htim2, &sMasterConfig) != HAL_OK)
 235:Core/Src/main.c ****   {
 236:Core/Src/main.c ****     Error_Handler();
 237:Core/Src/main.c ****   }
 238:Core/Src/main.c ****   /* USER CODE BEGIN TIM2_Init 2 */
 239:Core/Src/main.c **** 
 240:Core/Src/main.c ****   /* USER CODE END TIM2_Init 2 */
 241:Core/Src/main.c **** 
 242:Core/Src/main.c **** }
 243:Core/Src/main.c **** 
 244:Core/Src/main.c **** /**
 245:Core/Src/main.c ****   * @brief USART1 Initialization Function
 246:Core/Src/main.c ****   * @param None
 247:Core/Src/main.c ****   * @retval None
 248:Core/Src/main.c ****   */
 249:Core/Src/main.c **** static void MX_USART1_UART_Init(void)
 250:Core/Src/main.c **** {
 251:Core/Src/main.c **** 
 252:Core/Src/main.c ****   /* USER CODE BEGIN USART1_Init 0 */
 253:Core/Src/main.c **** 
 254:Core/Src/main.c ****   /* USER CODE END USART1_Init 0 */
 255:Core/Src/main.c **** 
 256:Core/Src/main.c ****   /* USER CODE BEGIN USART1_Init 1 */
 257:Core/Src/main.c **** 
 258:Core/Src/main.c ****   /* USER CODE END USART1_Init 1 */
 259:Core/Src/main.c ****   huart1.Instance = USART1;
 260:Core/Src/main.c ****   huart1.Init.BaudRate = 115200;
ARM GAS  C:\Users\master\AppData\Local\Temp\cckDjVFs.s 			page 6


 261:Core/Src/main.c ****   huart1.Init.WordLength = UART_WORDLENGTH_8B;
 262:Core/Src/main.c ****   huart1.Init.StopBits = UART_STOPBITS_1;
 263:Core/Src/main.c ****   huart1.Init.Parity = UART_PARITY_NONE;
 264:Core/Src/main.c ****   huart1.Init.Mode = UART_MODE_TX_RX;
 265:Core/Src/main.c ****   huart1.Init.HwFlowCtl = UART_HWCONTROL_NONE;
 266:Core/Src/main.c ****   huart1.Init.OverSampling = UART_OVERSAMPLING_16;
 267:Core/Src/main.c ****   if (HAL_UART_Init(&huart1) != HAL_OK)
 268:Core/Src/main.c ****   {
 269:Core/Src/main.c ****     Error_Handler();
 270:Core/Src/main.c ****   }
 271:Core/Src/main.c ****   /* USER CODE BEGIN USART1_Init 2 */
 272:Core/Src/main.c **** 
 273:Core/Src/main.c ****   /* USER CODE END USART1_Init 2 */
 274:Core/Src/main.c **** 
 275:Core/Src/main.c **** }
 276:Core/Src/main.c **** 
 277:Core/Src/main.c **** /**
 278:Core/Src/main.c ****   * Enable DMA controller clock
 279:Core/Src/main.c ****   * Configure DMA for memory to memory transfers
 280:Core/Src/main.c ****   *   hdma_memtomem_dma1_channel1
 281:Core/Src/main.c ****   *   hdma_memtomem_dma1_channel2
 282:Core/Src/main.c ****   */
 283:Core/Src/main.c **** static void MX_DMA_Init(void)
 284:Core/Src/main.c **** {
 285:Core/Src/main.c **** 
 286:Core/Src/main.c ****   /* DMA controller clock enable */
 287:Core/Src/main.c ****   __HAL_RCC_DMA1_CLK_ENABLE();
 288:Core/Src/main.c **** 
 289:Core/Src/main.c ****   /* Configure DMA request hdma_memtomem_dma1_channel1 on DMA1_Channel1 */
 290:Core/Src/main.c ****   hdma_memtomem_dma1_channel1.Instance = DMA1_Channel1;
 291:Core/Src/main.c ****   hdma_memtomem_dma1_channel1.Init.Direction = DMA_MEMORY_TO_MEMORY;
 292:Core/Src/main.c ****   hdma_memtomem_dma1_channel1.Init.PeriphInc = DMA_PINC_ENABLE;
 293:Core/Src/main.c ****   hdma_memtomem_dma1_channel1.Init.MemInc = DMA_MINC_ENABLE;
 294:Core/Src/main.c ****   hdma_memtomem_dma1_channel1.Init.PeriphDataAlignment = DMA_PDATAALIGN_BYTE;
 295:Core/Src/main.c ****   hdma_memtomem_dma1_channel1.Init.MemDataAlignment = DMA_MDATAALIGN_BYTE;
 296:Core/Src/main.c ****   hdma_memtomem_dma1_channel1.Init.Mode = DMA_NORMAL;
 297:Core/Src/main.c ****   hdma_memtomem_dma1_channel1.Init.Priority = DMA_PRIORITY_LOW;
 298:Core/Src/main.c ****   if (HAL_DMA_Init(&hdma_memtomem_dma1_channel1) != HAL_OK)
 299:Core/Src/main.c ****   {
 300:Core/Src/main.c ****     Error_Handler( );
 301:Core/Src/main.c ****   }
 302:Core/Src/main.c **** 
 303:Core/Src/main.c ****   /* Configure DMA request hdma_memtomem_dma1_channel2 on DMA1_Channel2 */
 304:Core/Src/main.c ****   hdma_memtomem_dma1_channel2.Instance = DMA1_Channel2;
 305:Core/Src/main.c ****   hdma_memtomem_dma1_channel2.Init.Direction = DMA_MEMORY_TO_MEMORY;
 306:Core/Src/main.c ****   hdma_memtomem_dma1_channel2.Init.PeriphInc = DMA_PINC_ENABLE;
 307:Core/Src/main.c ****   hdma_memtomem_dma1_channel2.Init.MemInc = DMA_MINC_ENABLE;
 308:Core/Src/main.c ****   hdma_memtomem_dma1_channel2.Init.PeriphDataAlignment = DMA_PDATAALIGN_BYTE;
 309:Core/Src/main.c ****   hdma_memtomem_dma1_channel2.Init.MemDataAlignment = DMA_MDATAALIGN_BYTE;
 310:Core/Src/main.c ****   hdma_memtomem_dma1_channel2.Init.Mode = DMA_NORMAL;
 311:Core/Src/main.c ****   hdma_memtomem_dma1_channel2.Init.Priority = DMA_PRIORITY_LOW;
 312:Core/Src/main.c ****   if (HAL_DMA_Init(&hdma_memtomem_dma1_channel2) != HAL_OK)
 313:Core/Src/main.c ****   {
 314:Core/Src/main.c ****     Error_Handler( );
 315:Core/Src/main.c ****   }
 316:Core/Src/main.c **** 
 317:Core/Src/main.c ****   /* DMA interrupt init */
ARM GAS  C:\Users\master\AppData\Local\Temp\cckDjVFs.s 			page 7


 318:Core/Src/main.c ****   /* DMA1_Channel4_IRQn interrupt configuration */
 319:Core/Src/main.c ****   HAL_NVIC_SetPriority(DMA1_Channel4_IRQn, 0, 0);
 320:Core/Src/main.c ****   HAL_NVIC_EnableIRQ(DMA1_Channel4_IRQn);
 321:Core/Src/main.c **** 
 322:Core/Src/main.c **** }
 323:Core/Src/main.c **** 
 324:Core/Src/main.c **** /**
 325:Core/Src/main.c ****   * @brief GPIO Initialization Function
 326:Core/Src/main.c ****   * @param None
 327:Core/Src/main.c ****   * @retval None
 328:Core/Src/main.c ****   */
 329:Core/Src/main.c **** static void MX_GPIO_Init(void)
 330:Core/Src/main.c **** {
  27              		.loc 1 330 0
  28              		.cfi_startproc
  29              		@ args = 0, pretend = 0, frame = 32
  30              		@ frame_needed = 0, uses_anonymous_args = 0
  31 0000 30B5     		push	{r4, r5, lr}
  32              	.LCFI0:
  33              		.cfi_def_cfa_offset 12
  34              		.cfi_offset 4, -12
  35              		.cfi_offset 5, -8
  36              		.cfi_offset 14, -4
  37 0002 89B0     		sub	sp, sp, #36
  38              	.LCFI1:
  39              		.cfi_def_cfa_offset 48
 331:Core/Src/main.c ****   GPIO_InitTypeDef GPIO_InitStruct = {0};
  40              		.loc 1 331 0
  41 0004 0024     		movs	r4, #0
  42 0006 0494     		str	r4, [sp, #16]
  43 0008 0594     		str	r4, [sp, #20]
  44 000a 0694     		str	r4, [sp, #24]
  45 000c 0794     		str	r4, [sp, #28]
  46              	.LBB4:
 332:Core/Src/main.c **** 
 333:Core/Src/main.c ****   /* GPIO Ports Clock Enable */
 334:Core/Src/main.c ****   __HAL_RCC_GPIOD_CLK_ENABLE();
  47              		.loc 1 334 0
  48 000e 184B     		ldr	r3, .L3
  49 0010 9A69     		ldr	r2, [r3, #24]
  50 0012 42F02002 		orr	r2, r2, #32
  51 0016 9A61     		str	r2, [r3, #24]
  52 0018 9A69     		ldr	r2, [r3, #24]
  53 001a 02F02002 		and	r2, r2, #32
  54 001e 0192     		str	r2, [sp, #4]
  55 0020 019A     		ldr	r2, [sp, #4]
  56              	.LBE4:
  57              	.LBB5:
 335:Core/Src/main.c ****   __HAL_RCC_GPIOB_CLK_ENABLE();
  58              		.loc 1 335 0
  59 0022 9A69     		ldr	r2, [r3, #24]
  60 0024 42F00802 		orr	r2, r2, #8
  61 0028 9A61     		str	r2, [r3, #24]
  62 002a 9A69     		ldr	r2, [r3, #24]
  63 002c 02F00802 		and	r2, r2, #8
  64 0030 0292     		str	r2, [sp, #8]
  65 0032 029A     		ldr	r2, [sp, #8]
ARM GAS  C:\Users\master\AppData\Local\Temp\cckDjVFs.s 			page 8


  66              	.LBE5:
  67              	.LBB6:
 336:Core/Src/main.c ****   __HAL_RCC_GPIOA_CLK_ENABLE();
  68              		.loc 1 336 0
  69 0034 9A69     		ldr	r2, [r3, #24]
  70 0036 42F00402 		orr	r2, r2, #4
  71 003a 9A61     		str	r2, [r3, #24]
  72 003c 9B69     		ldr	r3, [r3, #24]
  73 003e 03F00403 		and	r3, r3, #4
  74 0042 0393     		str	r3, [sp, #12]
  75 0044 039B     		ldr	r3, [sp, #12]
  76              	.LBE6:
 337:Core/Src/main.c **** 
 338:Core/Src/main.c ****   /*Configure GPIO pin Output Level */
 339:Core/Src/main.c ****   HAL_GPIO_WritePin(GPIOB, GPIO_PIN_12, GPIO_PIN_RESET);
  77              		.loc 1 339 0
  78 0046 0B4D     		ldr	r5, .L3+4
  79 0048 2246     		mov	r2, r4
  80 004a 4FF48051 		mov	r1, #4096
  81 004e 2846     		mov	r0, r5
  82 0050 FFF7FEFF 		bl	HAL_GPIO_WritePin
  83              	.LVL0:
 340:Core/Src/main.c **** 
 341:Core/Src/main.c ****   /*Configure GPIO pin : PB12 */
 342:Core/Src/main.c ****   GPIO_InitStruct.Pin = GPIO_PIN_12;
  84              		.loc 1 342 0
  85 0054 4FF48053 		mov	r3, #4096
  86 0058 0493     		str	r3, [sp, #16]
 343:Core/Src/main.c ****   GPIO_InitStruct.Mode = GPIO_MODE_OUTPUT_PP;
  87              		.loc 1 343 0
  88 005a 0123     		movs	r3, #1
  89 005c 0593     		str	r3, [sp, #20]
 344:Core/Src/main.c ****   GPIO_InitStruct.Pull = GPIO_NOPULL;
  90              		.loc 1 344 0
  91 005e 0694     		str	r4, [sp, #24]
 345:Core/Src/main.c ****   GPIO_InitStruct.Speed = GPIO_SPEED_FREQ_LOW;
  92              		.loc 1 345 0
  93 0060 0223     		movs	r3, #2
  94 0062 0793     		str	r3, [sp, #28]
 346:Core/Src/main.c ****   HAL_GPIO_Init(GPIOB, &GPIO_InitStruct);
  95              		.loc 1 346 0
  96 0064 04A9     		add	r1, sp, #16
  97 0066 2846     		mov	r0, r5
  98 0068 FFF7FEFF 		bl	HAL_GPIO_Init
  99              	.LVL1:
 347:Core/Src/main.c **** 
 348:Core/Src/main.c **** }
 100              		.loc 1 348 0
 101 006c 09B0     		add	sp, sp, #36
 102              	.LCFI2:
 103              		.cfi_def_cfa_offset 12
 104              		@ sp needed
 105 006e 30BD     		pop	{r4, r5, pc}
 106              	.L4:
 107              		.align	2
 108              	.L3:
 109 0070 00100240 		.word	1073876992
ARM GAS  C:\Users\master\AppData\Local\Temp\cckDjVFs.s 			page 9


 110 0074 000C0140 		.word	1073810432
 111              		.cfi_endproc
 112              	.LFE72:
 114              		.section	.text.Error_Handler,"ax",%progbits
 115              		.align	2
 116              		.global	Error_Handler
 117              		.thumb
 118              		.thumb_func
 120              	Error_Handler:
 121              	.LFB73:
 349:Core/Src/main.c **** 
 350:Core/Src/main.c **** /* USER CODE BEGIN 4 */
 351:Core/Src/main.c **** 
 352:Core/Src/main.c **** /* USER CODE END 4 */
 353:Core/Src/main.c **** 
 354:Core/Src/main.c **** /**
 355:Core/Src/main.c ****   * @brief  This function is executed in case of error occurrence.
 356:Core/Src/main.c ****   * @retval None
 357:Core/Src/main.c ****   */
 358:Core/Src/main.c **** void Error_Handler(void)
 359:Core/Src/main.c **** {
 122              		.loc 1 359 0
 123              		.cfi_startproc
 124              		@ Volatile: function does not return.
 125              		@ args = 0, pretend = 0, frame = 0
 126              		@ frame_needed = 0, uses_anonymous_args = 0
 127 0000 08B5     		push	{r3, lr}
 128              	.LCFI3:
 129              		.cfi_def_cfa_offset 8
 130              		.cfi_offset 3, -8
 131              		.cfi_offset 14, -4
 132              	.LBB7:
 133              	.LBB8:
 134              		.file 2 "Drivers/CMSIS/Include/cmsis_gcc.h"
   1:Drivers/CMSIS/Include/cmsis_gcc.h **** /**************************************************************************//**
   2:Drivers/CMSIS/Include/cmsis_gcc.h ****  * @file     cmsis_gcc.h
   3:Drivers/CMSIS/Include/cmsis_gcc.h ****  * @brief    CMSIS compiler GCC header file
   4:Drivers/CMSIS/Include/cmsis_gcc.h ****  * @version  V5.0.4
   5:Drivers/CMSIS/Include/cmsis_gcc.h ****  * @date     09. April 2018
   6:Drivers/CMSIS/Include/cmsis_gcc.h ****  ******************************************************************************/
   7:Drivers/CMSIS/Include/cmsis_gcc.h **** /*
   8:Drivers/CMSIS/Include/cmsis_gcc.h ****  * Copyright (c) 2009-2018 Arm Limited. All rights reserved.
   9:Drivers/CMSIS/Include/cmsis_gcc.h ****  *
  10:Drivers/CMSIS/Include/cmsis_gcc.h ****  * SPDX-License-Identifier: Apache-2.0
  11:Drivers/CMSIS/Include/cmsis_gcc.h ****  *
  12:Drivers/CMSIS/Include/cmsis_gcc.h ****  * Licensed under the Apache License, Version 2.0 (the License); you may
  13:Drivers/CMSIS/Include/cmsis_gcc.h ****  * not use this file except in compliance with the License.
  14:Drivers/CMSIS/Include/cmsis_gcc.h ****  * You may obtain a copy of the License at
  15:Drivers/CMSIS/Include/cmsis_gcc.h ****  *
  16:Drivers/CMSIS/Include/cmsis_gcc.h ****  * www.apache.org/licenses/LICENSE-2.0
  17:Drivers/CMSIS/Include/cmsis_gcc.h ****  *
  18:Drivers/CMSIS/Include/cmsis_gcc.h ****  * Unless required by applicable law or agreed to in writing, software
  19:Drivers/CMSIS/Include/cmsis_gcc.h ****  * distributed under the License is distributed on an AS IS BASIS, WITHOUT
  20:Drivers/CMSIS/Include/cmsis_gcc.h ****  * WARRANTIES OR CONDITIONS OF ANY KIND, either express or implied.
  21:Drivers/CMSIS/Include/cmsis_gcc.h ****  * See the License for the specific language governing permissions and
  22:Drivers/CMSIS/Include/cmsis_gcc.h ****  * limitations under the License.
  23:Drivers/CMSIS/Include/cmsis_gcc.h ****  */
ARM GAS  C:\Users\master\AppData\Local\Temp\cckDjVFs.s 			page 10


  24:Drivers/CMSIS/Include/cmsis_gcc.h **** 
  25:Drivers/CMSIS/Include/cmsis_gcc.h **** #ifndef __CMSIS_GCC_H
  26:Drivers/CMSIS/Include/cmsis_gcc.h **** #define __CMSIS_GCC_H
  27:Drivers/CMSIS/Include/cmsis_gcc.h **** 
  28:Drivers/CMSIS/Include/cmsis_gcc.h **** /* ignore some GCC warnings */
  29:Drivers/CMSIS/Include/cmsis_gcc.h **** #pragma GCC diagnostic push
  30:Drivers/CMSIS/Include/cmsis_gcc.h **** #pragma GCC diagnostic ignored "-Wsign-conversion"
  31:Drivers/CMSIS/Include/cmsis_gcc.h **** #pragma GCC diagnostic ignored "-Wconversion"
  32:Drivers/CMSIS/Include/cmsis_gcc.h **** #pragma GCC diagnostic ignored "-Wunused-parameter"
  33:Drivers/CMSIS/Include/cmsis_gcc.h **** 
  34:Drivers/CMSIS/Include/cmsis_gcc.h **** /* Fallback for __has_builtin */
  35:Drivers/CMSIS/Include/cmsis_gcc.h **** #ifndef __has_builtin
  36:Drivers/CMSIS/Include/cmsis_gcc.h ****   #define __has_builtin(x) (0)
  37:Drivers/CMSIS/Include/cmsis_gcc.h **** #endif
  38:Drivers/CMSIS/Include/cmsis_gcc.h **** 
  39:Drivers/CMSIS/Include/cmsis_gcc.h **** /* CMSIS compiler specific defines */
  40:Drivers/CMSIS/Include/cmsis_gcc.h **** #ifndef   __ASM
  41:Drivers/CMSIS/Include/cmsis_gcc.h ****   #define __ASM                                  __asm
  42:Drivers/CMSIS/Include/cmsis_gcc.h **** #endif
  43:Drivers/CMSIS/Include/cmsis_gcc.h **** #ifndef   __INLINE
  44:Drivers/CMSIS/Include/cmsis_gcc.h ****   #define __INLINE                               inline
  45:Drivers/CMSIS/Include/cmsis_gcc.h **** #endif
  46:Drivers/CMSIS/Include/cmsis_gcc.h **** #ifndef   __STATIC_INLINE
  47:Drivers/CMSIS/Include/cmsis_gcc.h ****   #define __STATIC_INLINE                        static inline
  48:Drivers/CMSIS/Include/cmsis_gcc.h **** #endif
  49:Drivers/CMSIS/Include/cmsis_gcc.h **** #ifndef   __STATIC_FORCEINLINE                 
  50:Drivers/CMSIS/Include/cmsis_gcc.h ****   #define __STATIC_FORCEINLINE                   __attribute__((always_inline)) static inline
  51:Drivers/CMSIS/Include/cmsis_gcc.h **** #endif                                           
  52:Drivers/CMSIS/Include/cmsis_gcc.h **** #ifndef   __NO_RETURN
  53:Drivers/CMSIS/Include/cmsis_gcc.h ****   #define __NO_RETURN                            __attribute__((__noreturn__))
  54:Drivers/CMSIS/Include/cmsis_gcc.h **** #endif
  55:Drivers/CMSIS/Include/cmsis_gcc.h **** #ifndef   __USED
  56:Drivers/CMSIS/Include/cmsis_gcc.h ****   #define __USED                                 __attribute__((used))
  57:Drivers/CMSIS/Include/cmsis_gcc.h **** #endif
  58:Drivers/CMSIS/Include/cmsis_gcc.h **** #ifndef   __WEAK
  59:Drivers/CMSIS/Include/cmsis_gcc.h ****   #define __WEAK                                 __attribute__((weak))
  60:Drivers/CMSIS/Include/cmsis_gcc.h **** #endif
  61:Drivers/CMSIS/Include/cmsis_gcc.h **** #ifndef   __PACKED
  62:Drivers/CMSIS/Include/cmsis_gcc.h ****   #define __PACKED                               __attribute__((packed, aligned(1)))
  63:Drivers/CMSIS/Include/cmsis_gcc.h **** #endif
  64:Drivers/CMSIS/Include/cmsis_gcc.h **** #ifndef   __PACKED_STRUCT
  65:Drivers/CMSIS/Include/cmsis_gcc.h ****   #define __PACKED_STRUCT                        struct __attribute__((packed, aligned(1)))
  66:Drivers/CMSIS/Include/cmsis_gcc.h **** #endif
  67:Drivers/CMSIS/Include/cmsis_gcc.h **** #ifndef   __PACKED_UNION
  68:Drivers/CMSIS/Include/cmsis_gcc.h ****   #define __PACKED_UNION                         union __attribute__((packed, aligned(1)))
  69:Drivers/CMSIS/Include/cmsis_gcc.h **** #endif
  70:Drivers/CMSIS/Include/cmsis_gcc.h **** #ifndef   __UNALIGNED_UINT32        /* deprecated */
  71:Drivers/CMSIS/Include/cmsis_gcc.h ****   #pragma GCC diagnostic push
  72:Drivers/CMSIS/Include/cmsis_gcc.h ****   #pragma GCC diagnostic ignored "-Wpacked"
  73:Drivers/CMSIS/Include/cmsis_gcc.h ****   #pragma GCC diagnostic ignored "-Wattributes"
  74:Drivers/CMSIS/Include/cmsis_gcc.h ****   struct __attribute__((packed)) T_UINT32 { uint32_t v; };
  75:Drivers/CMSIS/Include/cmsis_gcc.h ****   #pragma GCC diagnostic pop
  76:Drivers/CMSIS/Include/cmsis_gcc.h ****   #define __UNALIGNED_UINT32(x)                  (((struct T_UINT32 *)(x))->v)
  77:Drivers/CMSIS/Include/cmsis_gcc.h **** #endif
  78:Drivers/CMSIS/Include/cmsis_gcc.h **** #ifndef   __UNALIGNED_UINT16_WRITE
  79:Drivers/CMSIS/Include/cmsis_gcc.h ****   #pragma GCC diagnostic push
  80:Drivers/CMSIS/Include/cmsis_gcc.h ****   #pragma GCC diagnostic ignored "-Wpacked"
ARM GAS  C:\Users\master\AppData\Local\Temp\cckDjVFs.s 			page 11


  81:Drivers/CMSIS/Include/cmsis_gcc.h ****   #pragma GCC diagnostic ignored "-Wattributes"
  82:Drivers/CMSIS/Include/cmsis_gcc.h ****   __PACKED_STRUCT T_UINT16_WRITE { uint16_t v; };
  83:Drivers/CMSIS/Include/cmsis_gcc.h ****   #pragma GCC diagnostic pop
  84:Drivers/CMSIS/Include/cmsis_gcc.h ****   #define __UNALIGNED_UINT16_WRITE(addr, val)    (void)((((struct T_UINT16_WRITE *)(void *)(addr))-
  85:Drivers/CMSIS/Include/cmsis_gcc.h **** #endif
  86:Drivers/CMSIS/Include/cmsis_gcc.h **** #ifndef   __UNALIGNED_UINT16_READ
  87:Drivers/CMSIS/Include/cmsis_gcc.h ****   #pragma GCC diagnostic push
  88:Drivers/CMSIS/Include/cmsis_gcc.h ****   #pragma GCC diagnostic ignored "-Wpacked"
  89:Drivers/CMSIS/Include/cmsis_gcc.h ****   #pragma GCC diagnostic ignored "-Wattributes"
  90:Drivers/CMSIS/Include/cmsis_gcc.h ****   __PACKED_STRUCT T_UINT16_READ { uint16_t v; };
  91:Drivers/CMSIS/Include/cmsis_gcc.h ****   #pragma GCC diagnostic pop
  92:Drivers/CMSIS/Include/cmsis_gcc.h ****   #define __UNALIGNED_UINT16_READ(addr)          (((const struct T_UINT16_READ *)(const void *)(add
  93:Drivers/CMSIS/Include/cmsis_gcc.h **** #endif
  94:Drivers/CMSIS/Include/cmsis_gcc.h **** #ifndef   __UNALIGNED_UINT32_WRITE
  95:Drivers/CMSIS/Include/cmsis_gcc.h ****   #pragma GCC diagnostic push
  96:Drivers/CMSIS/Include/cmsis_gcc.h ****   #pragma GCC diagnostic ignored "-Wpacked"
  97:Drivers/CMSIS/Include/cmsis_gcc.h ****   #pragma GCC diagnostic ignored "-Wattributes"
  98:Drivers/CMSIS/Include/cmsis_gcc.h ****   __PACKED_STRUCT T_UINT32_WRITE { uint32_t v; };
  99:Drivers/CMSIS/Include/cmsis_gcc.h ****   #pragma GCC diagnostic pop
 100:Drivers/CMSIS/Include/cmsis_gcc.h ****   #define __UNALIGNED_UINT32_WRITE(addr, val)    (void)((((struct T_UINT32_WRITE *)(void *)(addr))-
 101:Drivers/CMSIS/Include/cmsis_gcc.h **** #endif
 102:Drivers/CMSIS/Include/cmsis_gcc.h **** #ifndef   __UNALIGNED_UINT32_READ
 103:Drivers/CMSIS/Include/cmsis_gcc.h ****   #pragma GCC diagnostic push
 104:Drivers/CMSIS/Include/cmsis_gcc.h ****   #pragma GCC diagnostic ignored "-Wpacked"
 105:Drivers/CMSIS/Include/cmsis_gcc.h ****   #pragma GCC diagnostic ignored "-Wattributes"
 106:Drivers/CMSIS/Include/cmsis_gcc.h ****   __PACKED_STRUCT T_UINT32_READ { uint32_t v; };
 107:Drivers/CMSIS/Include/cmsis_gcc.h ****   #pragma GCC diagnostic pop
 108:Drivers/CMSIS/Include/cmsis_gcc.h ****   #define __UNALIGNED_UINT32_READ(addr)          (((const struct T_UINT32_READ *)(const void *)(add
 109:Drivers/CMSIS/Include/cmsis_gcc.h **** #endif
 110:Drivers/CMSIS/Include/cmsis_gcc.h **** #ifndef   __ALIGNED
 111:Drivers/CMSIS/Include/cmsis_gcc.h ****   #define __ALIGNED(x)                           __attribute__((aligned(x)))
 112:Drivers/CMSIS/Include/cmsis_gcc.h **** #endif
 113:Drivers/CMSIS/Include/cmsis_gcc.h **** #ifndef   __RESTRICT
 114:Drivers/CMSIS/Include/cmsis_gcc.h ****   #define __RESTRICT                             __restrict
 115:Drivers/CMSIS/Include/cmsis_gcc.h **** #endif
 116:Drivers/CMSIS/Include/cmsis_gcc.h **** 
 117:Drivers/CMSIS/Include/cmsis_gcc.h **** 
 118:Drivers/CMSIS/Include/cmsis_gcc.h **** /* ###########################  Core Function Access  ########################### */
 119:Drivers/CMSIS/Include/cmsis_gcc.h **** /** \ingroup  CMSIS_Core_FunctionInterface
 120:Drivers/CMSIS/Include/cmsis_gcc.h ****     \defgroup CMSIS_Core_RegAccFunctions CMSIS Core Register Access Functions
 121:Drivers/CMSIS/Include/cmsis_gcc.h ****   @{
 122:Drivers/CMSIS/Include/cmsis_gcc.h ****  */
 123:Drivers/CMSIS/Include/cmsis_gcc.h **** 
 124:Drivers/CMSIS/Include/cmsis_gcc.h **** /**
 125:Drivers/CMSIS/Include/cmsis_gcc.h ****   \brief   Enable IRQ Interrupts
 126:Drivers/CMSIS/Include/cmsis_gcc.h ****   \details Enables IRQ interrupts by clearing the I-bit in the CPSR.
 127:Drivers/CMSIS/Include/cmsis_gcc.h ****            Can only be executed in Privileged modes.
 128:Drivers/CMSIS/Include/cmsis_gcc.h ****  */
 129:Drivers/CMSIS/Include/cmsis_gcc.h **** __STATIC_FORCEINLINE void __enable_irq(void)
 130:Drivers/CMSIS/Include/cmsis_gcc.h **** {
 131:Drivers/CMSIS/Include/cmsis_gcc.h ****   __ASM volatile ("cpsie i" : : : "memory");
 132:Drivers/CMSIS/Include/cmsis_gcc.h **** }
 133:Drivers/CMSIS/Include/cmsis_gcc.h **** 
 134:Drivers/CMSIS/Include/cmsis_gcc.h **** 
 135:Drivers/CMSIS/Include/cmsis_gcc.h **** /**
 136:Drivers/CMSIS/Include/cmsis_gcc.h ****   \brief   Disable IRQ Interrupts
 137:Drivers/CMSIS/Include/cmsis_gcc.h ****   \details Disables IRQ interrupts by setting the I-bit in the CPSR.
ARM GAS  C:\Users\master\AppData\Local\Temp\cckDjVFs.s 			page 12


 138:Drivers/CMSIS/Include/cmsis_gcc.h ****            Can only be executed in Privileged modes.
 139:Drivers/CMSIS/Include/cmsis_gcc.h ****  */
 140:Drivers/CMSIS/Include/cmsis_gcc.h **** __STATIC_FORCEINLINE void __disable_irq(void)
 141:Drivers/CMSIS/Include/cmsis_gcc.h **** {
 142:Drivers/CMSIS/Include/cmsis_gcc.h ****   __ASM volatile ("cpsid i" : : : "memory");
 135              		.loc 2 142 0
 136              		.syntax unified
 137              	@ 142 "Drivers/CMSIS/Include/cmsis_gcc.h" 1
 138 0002 72B6     		cpsid i
 139              	@ 0 "" 2
 140              		.thumb
 141              		.syntax unified
 142              	.L6:
 143              	.LBE8:
 144              	.LBE7:
 360:Core/Src/main.c ****   /* USER CODE BEGIN Error_Handler_Debug */
 361:Core/Src/main.c ****   /* User can add his own implementation to report the HAL error return state */
 362:Core/Src/main.c ****   __disable_irq();
 363:Core/Src/main.c ****   while (1)
 364:Core/Src/main.c ****   {
 365:Core/Src/main.c ****          HAL_GPIO_WritePin(GPIOB, GPIO_PIN_12, GPIO_PIN_SET);
 145              		.loc 1 365 0 discriminator 1
 146 0004 0122     		movs	r2, #1
 147 0006 4FF48051 		mov	r1, #4096
 148 000a 0248     		ldr	r0, .L8
 149 000c FFF7FEFF 		bl	HAL_GPIO_WritePin
 150              	.LVL2:
 151 0010 F8E7     		b	.L6
 152              	.L9:
 153 0012 00BF     		.align	2
 154              	.L8:
 155 0014 000C0140 		.word	1073810432
 156              		.cfi_endproc
 157              	.LFE73:
 159              		.section	.text.MX_I2C1_Init,"ax",%progbits
 160              		.align	2
 161              		.thumb
 162              		.thumb_func
 164              	MX_I2C1_Init:
 165              	.LFB68:
 171:Core/Src/main.c **** 
 166              		.loc 1 171 0
 167              		.cfi_startproc
 168              		@ args = 0, pretend = 0, frame = 0
 169              		@ frame_needed = 0, uses_anonymous_args = 0
 170 0000 08B5     		push	{r3, lr}
 171              	.LCFI4:
 172              		.cfi_def_cfa_offset 8
 173              		.cfi_offset 3, -8
 174              		.cfi_offset 14, -4
 180:Core/Src/main.c ****   hi2c1.Init.ClockSpeed = 400000;
 175              		.loc 1 180 0
 176 0002 0A48     		ldr	r0, .L13
 177 0004 0A4B     		ldr	r3, .L13+4
 178 0006 0360     		str	r3, [r0]
 181:Core/Src/main.c ****   hi2c1.Init.DutyCycle = I2C_DUTYCYCLE_2;
 179              		.loc 1 181 0
ARM GAS  C:\Users\master\AppData\Local\Temp\cckDjVFs.s 			page 13


 180 0008 0A4B     		ldr	r3, .L13+8
 181 000a 4360     		str	r3, [r0, #4]
 182:Core/Src/main.c ****   hi2c1.Init.OwnAddress1 = 0;
 182              		.loc 1 182 0
 183 000c 0023     		movs	r3, #0
 184 000e 8360     		str	r3, [r0, #8]
 183:Core/Src/main.c ****   hi2c1.Init.AddressingMode = I2C_ADDRESSINGMODE_7BIT;
 185              		.loc 1 183 0
 186 0010 C360     		str	r3, [r0, #12]
 184:Core/Src/main.c ****   hi2c1.Init.DualAddressMode = I2C_DUALADDRESS_DISABLE;
 187              		.loc 1 184 0
 188 0012 4FF48042 		mov	r2, #16384
 189 0016 0261     		str	r2, [r0, #16]
 185:Core/Src/main.c ****   hi2c1.Init.OwnAddress2 = 0;
 190              		.loc 1 185 0
 191 0018 4361     		str	r3, [r0, #20]
 186:Core/Src/main.c ****   hi2c1.Init.GeneralCallMode = I2C_GENERALCALL_DISABLE;
 192              		.loc 1 186 0
 193 001a 8361     		str	r3, [r0, #24]
 187:Core/Src/main.c ****   hi2c1.Init.NoStretchMode = I2C_NOSTRETCH_DISABLE;
 194              		.loc 1 187 0
 195 001c C361     		str	r3, [r0, #28]
 188:Core/Src/main.c ****   if (HAL_I2C_Init(&hi2c1) != HAL_OK)
 196              		.loc 1 188 0
 197 001e 0362     		str	r3, [r0, #32]
 189:Core/Src/main.c ****   {
 198              		.loc 1 189 0
 199 0020 FFF7FEFF 		bl	HAL_I2C_Init
 200              	.LVL3:
 201 0024 08B1     		cbz	r0, .L10
 191:Core/Src/main.c ****   }
 202              		.loc 1 191 0
 203 0026 FFF7FEFF 		bl	Error_Handler
 204              	.LVL4:
 205              	.L10:
 206 002a 08BD     		pop	{r3, pc}
 207              	.L14:
 208              		.align	2
 209              	.L13:
 210 002c 00000000 		.word	hi2c1
 211 0030 00540040 		.word	1073763328
 212 0034 801A0600 		.word	400000
 213              		.cfi_endproc
 214              	.LFE68:
 216              		.section	.text.MX_TIM2_Init,"ax",%progbits
 217              		.align	2
 218              		.thumb
 219              		.thumb_func
 221              	MX_TIM2_Init:
 222              	.LFB69:
 205:Core/Src/main.c **** 
 223              		.loc 1 205 0
 224              		.cfi_startproc
 225              		@ args = 0, pretend = 0, frame = 24
 226              		@ frame_needed = 0, uses_anonymous_args = 0
 227 0000 00B5     		push	{lr}
 228              	.LCFI5:
ARM GAS  C:\Users\master\AppData\Local\Temp\cckDjVFs.s 			page 14


 229              		.cfi_def_cfa_offset 4
 230              		.cfi_offset 14, -4
 231 0002 87B0     		sub	sp, sp, #28
 232              	.LCFI6:
 233              		.cfi_def_cfa_offset 32
 211:Core/Src/main.c ****   TIM_MasterConfigTypeDef sMasterConfig = {0};
 234              		.loc 1 211 0
 235 0004 0023     		movs	r3, #0
 236 0006 0293     		str	r3, [sp, #8]
 237 0008 0393     		str	r3, [sp, #12]
 238 000a 0493     		str	r3, [sp, #16]
 239 000c 0593     		str	r3, [sp, #20]
 212:Core/Src/main.c **** 
 240              		.loc 1 212 0
 241 000e 0093     		str	r3, [sp]
 242 0010 0193     		str	r3, [sp, #4]
 217:Core/Src/main.c ****   htim2.Init.Prescaler = 7199;
 243              		.loc 1 217 0
 244 0012 1548     		ldr	r0, .L20
 245 0014 4FF08042 		mov	r2, #1073741824
 246 0018 0260     		str	r2, [r0]
 218:Core/Src/main.c ****   htim2.Init.CounterMode = TIM_COUNTERMODE_UP;
 247              		.loc 1 218 0
 248 001a 41F61F42 		movw	r2, #7199
 249 001e 4260     		str	r2, [r0, #4]
 219:Core/Src/main.c ****   htim2.Init.Period = 4999;
 250              		.loc 1 219 0
 251 0020 8360     		str	r3, [r0, #8]
 220:Core/Src/main.c ****   htim2.Init.ClockDivision = TIM_CLOCKDIVISION_DIV1;
 252              		.loc 1 220 0
 253 0022 41F28732 		movw	r2, #4999
 254 0026 C260     		str	r2, [r0, #12]
 221:Core/Src/main.c ****   htim2.Init.AutoReloadPreload = TIM_AUTORELOAD_PRELOAD_ENABLE;
 255              		.loc 1 221 0
 256 0028 0361     		str	r3, [r0, #16]
 222:Core/Src/main.c ****   if (HAL_TIM_Base_Init(&htim2) != HAL_OK)
 257              		.loc 1 222 0
 258 002a 8023     		movs	r3, #128
 259 002c 8361     		str	r3, [r0, #24]
 223:Core/Src/main.c ****   {
 260              		.loc 1 223 0
 261 002e FFF7FEFF 		bl	HAL_TIM_Base_Init
 262              	.LVL5:
 263 0032 08B1     		cbz	r0, .L16
 225:Core/Src/main.c ****   }
 264              		.loc 1 225 0
 265 0034 FFF7FEFF 		bl	Error_Handler
 266              	.LVL6:
 267              	.L16:
 227:Core/Src/main.c ****   if (HAL_TIM_ConfigClockSource(&htim2, &sClockSourceConfig) != HAL_OK)
 268              		.loc 1 227 0
 269 0038 06A9     		add	r1, sp, #24
 270 003a 4FF48053 		mov	r3, #4096
 271 003e 41F8103D 		str	r3, [r1, #-16]!
 228:Core/Src/main.c ****   {
 272              		.loc 1 228 0
 273 0042 0948     		ldr	r0, .L20
ARM GAS  C:\Users\master\AppData\Local\Temp\cckDjVFs.s 			page 15


 274 0044 FFF7FEFF 		bl	HAL_TIM_ConfigClockSource
 275              	.LVL7:
 276 0048 08B1     		cbz	r0, .L17
 230:Core/Src/main.c ****   }
 277              		.loc 1 230 0
 278 004a FFF7FEFF 		bl	Error_Handler
 279              	.LVL8:
 280              	.L17:
 232:Core/Src/main.c ****   sMasterConfig.MasterSlaveMode = TIM_MASTERSLAVEMODE_DISABLE;
 281              		.loc 1 232 0
 282 004e 0023     		movs	r3, #0
 283 0050 0093     		str	r3, [sp]
 233:Core/Src/main.c ****   if (HAL_TIMEx_MasterConfigSynchronization(&htim2, &sMasterConfig) != HAL_OK)
 284              		.loc 1 233 0
 285 0052 0193     		str	r3, [sp, #4]
 234:Core/Src/main.c ****   {
 286              		.loc 1 234 0
 287 0054 6946     		mov	r1, sp
 288 0056 0448     		ldr	r0, .L20
 289 0058 FFF7FEFF 		bl	HAL_TIMEx_MasterConfigSynchronization
 290              	.LVL9:
 291 005c 08B1     		cbz	r0, .L15
 236:Core/Src/main.c ****   }
 292              		.loc 1 236 0
 293 005e FFF7FEFF 		bl	Error_Handler
 294              	.LVL10:
 295              	.L15:
 242:Core/Src/main.c **** 
 296              		.loc 1 242 0
 297 0062 07B0     		add	sp, sp, #28
 298              	.LCFI7:
 299              		.cfi_def_cfa_offset 4
 300              		@ sp needed
 301 0064 5DF804FB 		ldr	pc, [sp], #4
 302              	.L21:
 303              		.align	2
 304              	.L20:
 305 0068 00000000 		.word	htim2
 306              		.cfi_endproc
 307              	.LFE69:
 309              		.section	.text.MX_DMA_Init,"ax",%progbits
 310              		.align	2
 311              		.thumb
 312              		.thumb_func
 314              	MX_DMA_Init:
 315              	.LFB71:
 284:Core/Src/main.c **** 
 316              		.loc 1 284 0
 317              		.cfi_startproc
 318              		@ args = 0, pretend = 0, frame = 8
 319              		@ frame_needed = 0, uses_anonymous_args = 0
 320 0000 00B5     		push	{lr}
 321              	.LCFI8:
 322              		.cfi_def_cfa_offset 4
 323              		.cfi_offset 14, -4
 324 0002 83B0     		sub	sp, sp, #12
 325              	.LCFI9:
ARM GAS  C:\Users\master\AppData\Local\Temp\cckDjVFs.s 			page 16


 326              		.cfi_def_cfa_offset 16
 327              	.LBB9:
 287:Core/Src/main.c **** 
 328              		.loc 1 287 0
 329 0004 1E4B     		ldr	r3, .L26
 330 0006 5A69     		ldr	r2, [r3, #20]
 331 0008 42F00102 		orr	r2, r2, #1
 332 000c 5A61     		str	r2, [r3, #20]
 333 000e 5B69     		ldr	r3, [r3, #20]
 334 0010 03F00103 		and	r3, r3, #1
 335 0014 0193     		str	r3, [sp, #4]
 336 0016 019B     		ldr	r3, [sp, #4]
 337              	.LBE9:
 290:Core/Src/main.c ****   hdma_memtomem_dma1_channel1.Init.Direction = DMA_MEMORY_TO_MEMORY;
 338              		.loc 1 290 0
 339 0018 1A48     		ldr	r0, .L26+4
 340 001a 1B4B     		ldr	r3, .L26+8
 341 001c 0360     		str	r3, [r0]
 291:Core/Src/main.c ****   hdma_memtomem_dma1_channel1.Init.PeriphInc = DMA_PINC_ENABLE;
 342              		.loc 1 291 0
 343 001e 4FF48043 		mov	r3, #16384
 344 0022 4360     		str	r3, [r0, #4]
 292:Core/Src/main.c ****   hdma_memtomem_dma1_channel1.Init.MemInc = DMA_MINC_ENABLE;
 345              		.loc 1 292 0
 346 0024 4023     		movs	r3, #64
 347 0026 8360     		str	r3, [r0, #8]
 293:Core/Src/main.c ****   hdma_memtomem_dma1_channel1.Init.PeriphDataAlignment = DMA_PDATAALIGN_BYTE;
 348              		.loc 1 293 0
 349 0028 8023     		movs	r3, #128
 350 002a C360     		str	r3, [r0, #12]
 294:Core/Src/main.c ****   hdma_memtomem_dma1_channel1.Init.MemDataAlignment = DMA_MDATAALIGN_BYTE;
 351              		.loc 1 294 0
 352 002c 0023     		movs	r3, #0
 353 002e 0361     		str	r3, [r0, #16]
 295:Core/Src/main.c ****   hdma_memtomem_dma1_channel1.Init.Mode = DMA_NORMAL;
 354              		.loc 1 295 0
 355 0030 4361     		str	r3, [r0, #20]
 296:Core/Src/main.c ****   hdma_memtomem_dma1_channel1.Init.Priority = DMA_PRIORITY_LOW;
 356              		.loc 1 296 0
 357 0032 8361     		str	r3, [r0, #24]
 297:Core/Src/main.c ****   if (HAL_DMA_Init(&hdma_memtomem_dma1_channel1) != HAL_OK)
 358              		.loc 1 297 0
 359 0034 C361     		str	r3, [r0, #28]
 298:Core/Src/main.c ****   {
 360              		.loc 1 298 0
 361 0036 FFF7FEFF 		bl	HAL_DMA_Init
 362              	.LVL11:
 363 003a 08B1     		cbz	r0, .L23
 300:Core/Src/main.c ****   }
 364              		.loc 1 300 0
 365 003c FFF7FEFF 		bl	Error_Handler
 366              	.LVL12:
 367              	.L23:
 304:Core/Src/main.c ****   hdma_memtomem_dma1_channel2.Init.Direction = DMA_MEMORY_TO_MEMORY;
 368              		.loc 1 304 0
 369 0040 1248     		ldr	r0, .L26+12
 370 0042 134B     		ldr	r3, .L26+16
ARM GAS  C:\Users\master\AppData\Local\Temp\cckDjVFs.s 			page 17


 371 0044 0360     		str	r3, [r0]
 305:Core/Src/main.c ****   hdma_memtomem_dma1_channel2.Init.PeriphInc = DMA_PINC_ENABLE;
 372              		.loc 1 305 0
 373 0046 4FF48043 		mov	r3, #16384
 374 004a 4360     		str	r3, [r0, #4]
 306:Core/Src/main.c ****   hdma_memtomem_dma1_channel2.Init.MemInc = DMA_MINC_ENABLE;
 375              		.loc 1 306 0
 376 004c 4023     		movs	r3, #64
 377 004e 8360     		str	r3, [r0, #8]
 307:Core/Src/main.c ****   hdma_memtomem_dma1_channel2.Init.PeriphDataAlignment = DMA_PDATAALIGN_BYTE;
 378              		.loc 1 307 0
 379 0050 8023     		movs	r3, #128
 380 0052 C360     		str	r3, [r0, #12]
 308:Core/Src/main.c ****   hdma_memtomem_dma1_channel2.Init.MemDataAlignment = DMA_MDATAALIGN_BYTE;
 381              		.loc 1 308 0
 382 0054 0023     		movs	r3, #0
 383 0056 0361     		str	r3, [r0, #16]
 309:Core/Src/main.c ****   hdma_memtomem_dma1_channel2.Init.Mode = DMA_NORMAL;
 384              		.loc 1 309 0
 385 0058 4361     		str	r3, [r0, #20]
 310:Core/Src/main.c ****   hdma_memtomem_dma1_channel2.Init.Priority = DMA_PRIORITY_LOW;
 386              		.loc 1 310 0
 387 005a 8361     		str	r3, [r0, #24]
 311:Core/Src/main.c ****   if (HAL_DMA_Init(&hdma_memtomem_dma1_channel2) != HAL_OK)
 388              		.loc 1 311 0
 389 005c C361     		str	r3, [r0, #28]
 312:Core/Src/main.c ****   {
 390              		.loc 1 312 0
 391 005e FFF7FEFF 		bl	HAL_DMA_Init
 392              	.LVL13:
 393 0062 08B1     		cbz	r0, .L24
 314:Core/Src/main.c ****   }
 394              		.loc 1 314 0
 395 0064 FFF7FEFF 		bl	Error_Handler
 396              	.LVL14:
 397              	.L24:
 319:Core/Src/main.c ****   HAL_NVIC_EnableIRQ(DMA1_Channel4_IRQn);
 398              		.loc 1 319 0
 399 0068 0022     		movs	r2, #0
 400 006a 1146     		mov	r1, r2
 401 006c 0E20     		movs	r0, #14
 402 006e FFF7FEFF 		bl	HAL_NVIC_SetPriority
 403              	.LVL15:
 320:Core/Src/main.c **** 
 404              		.loc 1 320 0
 405 0072 0E20     		movs	r0, #14
 406 0074 FFF7FEFF 		bl	HAL_NVIC_EnableIRQ
 407              	.LVL16:
 322:Core/Src/main.c **** 
 408              		.loc 1 322 0
 409 0078 03B0     		add	sp, sp, #12
 410              	.LCFI10:
 411              		.cfi_def_cfa_offset 4
 412              		@ sp needed
 413 007a 5DF804FB 		ldr	pc, [sp], #4
 414              	.L27:
 415 007e 00BF     		.align	2
ARM GAS  C:\Users\master\AppData\Local\Temp\cckDjVFs.s 			page 18


 416              	.L26:
 417 0080 00100240 		.word	1073876992
 418 0084 00000000 		.word	hdma_memtomem_dma1_channel1
 419 0088 08000240 		.word	1073872904
 420 008c 00000000 		.word	hdma_memtomem_dma1_channel2
 421 0090 1C000240 		.word	1073872924
 422              		.cfi_endproc
 423              	.LFE71:
 425              		.section	.text.MX_USART1_UART_Init,"ax",%progbits
 426              		.align	2
 427              		.thumb
 428              		.thumb_func
 430              	MX_USART1_UART_Init:
 431              	.LFB70:
 250:Core/Src/main.c **** 
 432              		.loc 1 250 0
 433              		.cfi_startproc
 434              		@ args = 0, pretend = 0, frame = 0
 435              		@ frame_needed = 0, uses_anonymous_args = 0
 436 0000 08B5     		push	{r3, lr}
 437              	.LCFI11:
 438              		.cfi_def_cfa_offset 8
 439              		.cfi_offset 3, -8
 440              		.cfi_offset 14, -4
 259:Core/Src/main.c ****   huart1.Init.BaudRate = 115200;
 441              		.loc 1 259 0
 442 0002 0A48     		ldr	r0, .L31
 443 0004 0A4B     		ldr	r3, .L31+4
 444 0006 0360     		str	r3, [r0]
 260:Core/Src/main.c ****   huart1.Init.WordLength = UART_WORDLENGTH_8B;
 445              		.loc 1 260 0
 446 0008 4FF4E133 		mov	r3, #115200
 447 000c 4360     		str	r3, [r0, #4]
 261:Core/Src/main.c ****   huart1.Init.StopBits = UART_STOPBITS_1;
 448              		.loc 1 261 0
 449 000e 0023     		movs	r3, #0
 450 0010 8360     		str	r3, [r0, #8]
 262:Core/Src/main.c ****   huart1.Init.Parity = UART_PARITY_NONE;
 451              		.loc 1 262 0
 452 0012 C360     		str	r3, [r0, #12]
 263:Core/Src/main.c ****   huart1.Init.Mode = UART_MODE_TX_RX;
 453              		.loc 1 263 0
 454 0014 0361     		str	r3, [r0, #16]
 264:Core/Src/main.c ****   huart1.Init.HwFlowCtl = UART_HWCONTROL_NONE;
 455              		.loc 1 264 0
 456 0016 0C22     		movs	r2, #12
 457 0018 4261     		str	r2, [r0, #20]
 265:Core/Src/main.c ****   huart1.Init.OverSampling = UART_OVERSAMPLING_16;
 458              		.loc 1 265 0
 459 001a 8361     		str	r3, [r0, #24]
 266:Core/Src/main.c ****   if (HAL_UART_Init(&huart1) != HAL_OK)
 460              		.loc 1 266 0
 461 001c C361     		str	r3, [r0, #28]
 267:Core/Src/main.c ****   {
 462              		.loc 1 267 0
 463 001e FFF7FEFF 		bl	HAL_UART_Init
 464              	.LVL17:
ARM GAS  C:\Users\master\AppData\Local\Temp\cckDjVFs.s 			page 19


 465 0022 08B1     		cbz	r0, .L28
 269:Core/Src/main.c ****   }
 466              		.loc 1 269 0
 467 0024 FFF7FEFF 		bl	Error_Handler
 468              	.LVL18:
 469              	.L28:
 470 0028 08BD     		pop	{r3, pc}
 471              	.L32:
 472 002a 00BF     		.align	2
 473              	.L31:
 474 002c 00000000 		.word	huart1
 475 0030 00380140 		.word	1073821696
 476              		.cfi_endproc
 477              	.LFE70:
 479              		.section	.text.SystemClock_Config,"ax",%progbits
 480              		.align	2
 481              		.global	SystemClock_Config
 482              		.thumb
 483              		.thumb_func
 485              	SystemClock_Config:
 486              	.LFB67:
 132:Core/Src/main.c ****   RCC_OscInitTypeDef RCC_OscInitStruct = {0};
 487              		.loc 1 132 0
 488              		.cfi_startproc
 489              		@ args = 0, pretend = 0, frame = 64
 490              		@ frame_needed = 0, uses_anonymous_args = 0
 491 0000 00B5     		push	{lr}
 492              	.LCFI12:
 493              		.cfi_def_cfa_offset 4
 494              		.cfi_offset 14, -4
 495 0002 91B0     		sub	sp, sp, #68
 496              	.LCFI13:
 497              		.cfi_def_cfa_offset 72
 133:Core/Src/main.c ****   RCC_ClkInitTypeDef RCC_ClkInitStruct = {0};
 498              		.loc 1 133 0
 499 0004 2822     		movs	r2, #40
 500 0006 0021     		movs	r1, #0
 501 0008 06A8     		add	r0, sp, #24
 502 000a FFF7FEFF 		bl	memset
 503              	.LVL19:
 134:Core/Src/main.c **** 
 504              		.loc 1 134 0
 505 000e 0023     		movs	r3, #0
 506 0010 0193     		str	r3, [sp, #4]
 507 0012 0293     		str	r3, [sp, #8]
 508 0014 0393     		str	r3, [sp, #12]
 509 0016 0493     		str	r3, [sp, #16]
 510 0018 0593     		str	r3, [sp, #20]
 139:Core/Src/main.c ****   RCC_OscInitStruct.HSEState = RCC_HSE_ON;
 511              		.loc 1 139 0
 512 001a 0122     		movs	r2, #1
 513 001c 0692     		str	r2, [sp, #24]
 140:Core/Src/main.c ****   RCC_OscInitStruct.HSEPredivValue = RCC_HSE_PREDIV_DIV1;
 514              		.loc 1 140 0
 515 001e 4FF48033 		mov	r3, #65536
 516 0022 0793     		str	r3, [sp, #28]
 142:Core/Src/main.c ****   RCC_OscInitStruct.PLL.PLLState = RCC_PLL_ON;
ARM GAS  C:\Users\master\AppData\Local\Temp\cckDjVFs.s 			page 20


 517              		.loc 1 142 0
 518 0024 0A92     		str	r2, [sp, #40]
 143:Core/Src/main.c ****   RCC_OscInitStruct.PLL.PLLSource = RCC_PLLSOURCE_HSE;
 519              		.loc 1 143 0
 520 0026 0222     		movs	r2, #2
 521 0028 0D92     		str	r2, [sp, #52]
 144:Core/Src/main.c ****   RCC_OscInitStruct.PLL.PLLMUL = RCC_PLL_MUL9;
 522              		.loc 1 144 0
 523 002a 0E93     		str	r3, [sp, #56]
 145:Core/Src/main.c ****   if (HAL_RCC_OscConfig(&RCC_OscInitStruct) != HAL_OK)
 524              		.loc 1 145 0
 525 002c 4FF4E013 		mov	r3, #1835008
 526 0030 0F93     		str	r3, [sp, #60]
 146:Core/Src/main.c ****   {
 527              		.loc 1 146 0
 528 0032 06A8     		add	r0, sp, #24
 529 0034 FFF7FEFF 		bl	HAL_RCC_OscConfig
 530              	.LVL20:
 531 0038 08B1     		cbz	r0, .L34
 148:Core/Src/main.c ****   }
 532              		.loc 1 148 0
 533 003a FFF7FEFF 		bl	Error_Handler
 534              	.LVL21:
 535              	.L34:
 152:Core/Src/main.c ****                               |RCC_CLOCKTYPE_PCLK1|RCC_CLOCKTYPE_PCLK2;
 536              		.loc 1 152 0
 537 003e 0F23     		movs	r3, #15
 538 0040 0193     		str	r3, [sp, #4]
 154:Core/Src/main.c ****   RCC_ClkInitStruct.AHBCLKDivider = RCC_SYSCLK_DIV1;
 539              		.loc 1 154 0
 540 0042 0221     		movs	r1, #2
 541 0044 0291     		str	r1, [sp, #8]
 155:Core/Src/main.c ****   RCC_ClkInitStruct.APB1CLKDivider = RCC_HCLK_DIV2;
 542              		.loc 1 155 0
 543 0046 0023     		movs	r3, #0
 544 0048 0393     		str	r3, [sp, #12]
 156:Core/Src/main.c ****   RCC_ClkInitStruct.APB2CLKDivider = RCC_HCLK_DIV1;
 545              		.loc 1 156 0
 546 004a 4FF48062 		mov	r2, #1024
 547 004e 0492     		str	r2, [sp, #16]
 157:Core/Src/main.c **** 
 548              		.loc 1 157 0
 549 0050 0593     		str	r3, [sp, #20]
 159:Core/Src/main.c ****   {
 550              		.loc 1 159 0
 551 0052 01A8     		add	r0, sp, #4
 552 0054 FFF7FEFF 		bl	HAL_RCC_ClockConfig
 553              	.LVL22:
 554 0058 08B1     		cbz	r0, .L33
 161:Core/Src/main.c ****   }
 555              		.loc 1 161 0
 556 005a FFF7FEFF 		bl	Error_Handler
 557              	.LVL23:
 558              	.L33:
 163:Core/Src/main.c **** 
 559              		.loc 1 163 0
 560 005e 11B0     		add	sp, sp, #68
ARM GAS  C:\Users\master\AppData\Local\Temp\cckDjVFs.s 			page 21


 561              	.LCFI14:
 562              		.cfi_def_cfa_offset 4
 563              		@ sp needed
 564 0060 5DF804FB 		ldr	pc, [sp], #4
 565              		.cfi_endproc
 566              	.LFE67:
 568              		.section	.text.main,"ax",%progbits
 569              		.align	2
 570              		.global	main
 571              		.thumb
 572              		.thumb_func
 574              	main:
 575              	.LFB66:
  79:Core/Src/main.c ****   /* USER CODE BEGIN 1 */
 576              		.loc 1 79 0
 577              		.cfi_startproc
 578              		@ Volatile: function does not return.
 579              		@ args = 0, pretend = 0, frame = 0
 580              		@ frame_needed = 0, uses_anonymous_args = 0
 581 0000 08B5     		push	{r3, lr}
 582              	.LCFI15:
 583              		.cfi_def_cfa_offset 8
 584              		.cfi_offset 3, -8
 585              		.cfi_offset 14, -4
  87:Core/Src/main.c **** 
 586              		.loc 1 87 0
 587 0002 FFF7FEFF 		bl	HAL_Init
 588              	.LVL24:
  94:Core/Src/main.c **** 
 589              		.loc 1 94 0
 590 0006 FFF7FEFF 		bl	SystemClock_Config
 591              	.LVL25:
 101:Core/Src/main.c ****   MX_I2C1_Init();
 592              		.loc 1 101 0
 593 000a FFF7FEFF 		bl	MX_GPIO_Init
 594              	.LVL26:
 102:Core/Src/main.c ****   MX_TIM2_Init();
 595              		.loc 1 102 0
 596 000e FFF7FEFF 		bl	MX_I2C1_Init
 597              	.LVL27:
 103:Core/Src/main.c ****   MX_DMA_Init();
 598              		.loc 1 103 0
 599 0012 FFF7FEFF 		bl	MX_TIM2_Init
 600              	.LVL28:
 104:Core/Src/main.c ****   MX_USART1_UART_Init();
 601              		.loc 1 104 0
 602 0016 FFF7FEFF 		bl	MX_DMA_Init
 603              	.LVL29:
 105:Core/Src/main.c ****   /* USER CODE BEGIN 2 */
 604              		.loc 1 105 0
 605 001a FFF7FEFF 		bl	MX_USART1_UART_Init
 606              	.LVL30:
 120:Core/Src/main.c ****    
 607              		.loc 1 120 0
 608 001e FFF7FEFF 		bl	mysetp
 609              	.LVL31:
 610              	.L38:
ARM GAS  C:\Users\master\AppData\Local\Temp\cckDjVFs.s 			page 22


 611 0022 FEE7     		b	.L38
 612              		.cfi_endproc
 613              	.LFE66:
 615              		.comm	hdma_memtomem_dma1_channel2,68,4
 616              		.comm	hdma_memtomem_dma1_channel1,68,4
 617              		.comm	hdma_usart1_tx,68,4
 618              		.comm	huart1,68,4
 619              		.comm	htim2,72,4
 620              		.comm	hi2c1,84,4
 621              		.text
 622              	.Letext0:
 623              		.file 3 "c:\\program files (x86)\\gnu tools arm embedded\\5.4 2016q3\\arm-none-eabi\\include\\mach
 624              		.file 4 "c:\\program files (x86)\\gnu tools arm embedded\\5.4 2016q3\\arm-none-eabi\\include\\sys\
 625              		.file 5 "Drivers/CMSIS/Device/ST/STM32F1xx/Include/stm32f103xb.h"
 626              		.file 6 "Drivers/STM32F1xx_HAL_Driver/Inc/stm32f1xx_hal_def.h"
 627              		.file 7 "Drivers/STM32F1xx_HAL_Driver/Inc/stm32f1xx_hal_rcc.h"
 628              		.file 8 "Drivers/STM32F1xx_HAL_Driver/Inc/stm32f1xx_hal_rcc_ex.h"
 629              		.file 9 "Drivers/STM32F1xx_HAL_Driver/Inc/stm32f1xx_hal_gpio.h"
 630              		.file 10 "Drivers/STM32F1xx_HAL_Driver/Inc/stm32f1xx_hal_dma.h"
 631              		.file 11 "Drivers/STM32F1xx_HAL_Driver/Inc/stm32f1xx_hal_i2c.h"
 632              		.file 12 "Drivers/STM32F1xx_HAL_Driver/Inc/stm32f1xx_hal_tim.h"
 633              		.file 13 "Drivers/STM32F1xx_HAL_Driver/Inc/stm32f1xx_hal_uart.h"
 634              		.file 14 "Drivers/CMSIS/Include/core_cm3.h"
 635              		.file 15 "Drivers/STM32F1xx_HAL_Driver/Inc/stm32f1xx_hal_tim_ex.h"
 636              		.file 16 "Drivers/STM32F1xx_HAL_Driver/Inc/stm32f1xx_hal_cortex.h"
 637              		.file 17 "Drivers/STM32F1xx_HAL_Driver/Inc/stm32f1xx_hal.h"
 638              		.file 18 "Core/Inc/mysetp.h"
ARM GAS  C:\Users\master\AppData\Local\Temp\cckDjVFs.s 			page 23


DEFINED SYMBOLS
                            *ABS*:00000000 main.c
C:\Users\master\AppData\Local\Temp\cckDjVFs.s:20     .text.MX_GPIO_Init:00000000 $t
C:\Users\master\AppData\Local\Temp\cckDjVFs.s:24     .text.MX_GPIO_Init:00000000 MX_GPIO_Init
C:\Users\master\AppData\Local\Temp\cckDjVFs.s:109    .text.MX_GPIO_Init:00000070 $d
C:\Users\master\AppData\Local\Temp\cckDjVFs.s:115    .text.Error_Handler:00000000 $t
C:\Users\master\AppData\Local\Temp\cckDjVFs.s:120    .text.Error_Handler:00000000 Error_Handler
C:\Users\master\AppData\Local\Temp\cckDjVFs.s:155    .text.Error_Handler:00000014 $d
C:\Users\master\AppData\Local\Temp\cckDjVFs.s:160    .text.MX_I2C1_Init:00000000 $t
C:\Users\master\AppData\Local\Temp\cckDjVFs.s:164    .text.MX_I2C1_Init:00000000 MX_I2C1_Init
C:\Users\master\AppData\Local\Temp\cckDjVFs.s:210    .text.MX_I2C1_Init:0000002c $d
                            *COM*:00000054 hi2c1
C:\Users\master\AppData\Local\Temp\cckDjVFs.s:217    .text.MX_TIM2_Init:00000000 $t
C:\Users\master\AppData\Local\Temp\cckDjVFs.s:221    .text.MX_TIM2_Init:00000000 MX_TIM2_Init
C:\Users\master\AppData\Local\Temp\cckDjVFs.s:305    .text.MX_TIM2_Init:00000068 $d
                            *COM*:00000048 htim2
C:\Users\master\AppData\Local\Temp\cckDjVFs.s:310    .text.MX_DMA_Init:00000000 $t
C:\Users\master\AppData\Local\Temp\cckDjVFs.s:314    .text.MX_DMA_Init:00000000 MX_DMA_Init
C:\Users\master\AppData\Local\Temp\cckDjVFs.s:417    .text.MX_DMA_Init:00000080 $d
                            *COM*:00000044 hdma_memtomem_dma1_channel1
                            *COM*:00000044 hdma_memtomem_dma1_channel2
C:\Users\master\AppData\Local\Temp\cckDjVFs.s:426    .text.MX_USART1_UART_Init:00000000 $t
C:\Users\master\AppData\Local\Temp\cckDjVFs.s:430    .text.MX_USART1_UART_Init:00000000 MX_USART1_UART_Init
C:\Users\master\AppData\Local\Temp\cckDjVFs.s:474    .text.MX_USART1_UART_Init:0000002c $d
                            *COM*:00000044 huart1
C:\Users\master\AppData\Local\Temp\cckDjVFs.s:480    .text.SystemClock_Config:00000000 $t
C:\Users\master\AppData\Local\Temp\cckDjVFs.s:485    .text.SystemClock_Config:00000000 SystemClock_Config
C:\Users\master\AppData\Local\Temp\cckDjVFs.s:569    .text.main:00000000 $t
C:\Users\master\AppData\Local\Temp\cckDjVFs.s:574    .text.main:00000000 main
                            *COM*:00000044 hdma_usart1_tx
                     .debug_frame:00000010 $d

UNDEFINED SYMBOLS
HAL_GPIO_WritePin
HAL_GPIO_Init
HAL_I2C_Init
HAL_TIM_Base_Init
HAL_TIM_ConfigClockSource
HAL_TIMEx_MasterConfigSynchronization
HAL_DMA_Init
HAL_NVIC_SetPriority
HAL_NVIC_EnableIRQ
HAL_UART_Init
memset
HAL_RCC_OscConfig
HAL_RCC_ClockConfig
HAL_Init
mysetp
