ARM GAS  C:\Users\master\AppData\Local\Temp\cc8w77Vt.s 			page 1


   1              		.syntax unified
   2              		.cpu cortex-m3
   3              		.fpu softvfp
   4              		.eabi_attribute 20, 1
   5              		.eabi_attribute 21, 1
   6              		.eabi_attribute 23, 3
   7              		.eabi_attribute 24, 1
   8              		.eabi_attribute 25, 1
   9              		.eabi_attribute 26, 1
  10              		.eabi_attribute 30, 1
  11              		.eabi_attribute 34, 1
  12              		.eabi_attribute 18, 4
  13              		.thumb
  14              		.syntax unified
  15              		.file	"mysetp.c"
  16              		.text
  17              	.Ltext0:
  18              		.cfi_sections	.debug_frame
  19              		.section	.text.mysetp,"ax",%progbits
  20              		.align	2
  21              		.global	mysetp
  22              		.thumb
  23              		.thumb_func
  25              	mysetp:
  26              	.LFB66:
  27              		.file 1 "Core/Src/mysetp.c"
   1:Core/Src/mysetp.c **** #include "mysetp.h"
   2:Core/Src/mysetp.c **** #include "oled.h"
   3:Core/Src/mysetp.c **** 
   4:Core/Src/mysetp.c **** uint8_t dds[]={11,22};
   5:Core/Src/mysetp.c **** 
   6:Core/Src/mysetp.c **** 
   7:Core/Src/mysetp.c **** u8g2_t u8g2;
   8:Core/Src/mysetp.c **** 
   9:Core/Src/mysetp.c **** unsigned char bmp[]=
  10:Core/Src/mysetp.c **** {
  11:Core/Src/mysetp.c **** 0xF8,0x0F,0x08,0x08,0x08,0x08,0xF8,0x0F,0x08,0x08,0x08,0x08,0xF8,0x0F,0x00,0x00,0xFF,0x7F,0x80,0x00
  12:Core/Src/mysetp.c **** 0x40,0x00,0x40,0x00,0xE0,0x0F,0x10,0x04,0x1C,0x02,0x20,0x01,0xC0,0x02,0x30,0x01,0x8E,0x1F,0x40,0x10
  13:Core/Src/mysetp.c **** 0x80,0x00,0x80,0x00,0x80,0x00,0x90,0x04,0x90,0x08,0x88,0x10,0x88,0x20,0x84,0x28,0x82,0x08,0x80,0x04
  14:Core/Src/mysetp.c **** unsigned char mydist=40;
  15:Core/Src/mysetp.c **** char flag=1;
  16:Core/Src/mysetp.c **** void mysetp(){
  28              		.loc 1 16 0
  29              		.cfi_startproc
  30              		@ Volatile: function does not return.
  31              		@ args = 0, pretend = 0, frame = 0
  32              		@ frame_needed = 0, uses_anonymous_args = 0
  33 0000 08B5     		push	{r3, lr}
  34              	.LCFI0:
  35              		.cfi_def_cfa_offset 8
  36              		.cfi_offset 3, -8
  37              		.cfi_offset 14, -4
  17:Core/Src/mysetp.c ****     //oledINIT(mhi2c);
  18:Core/Src/mysetp.c ****     u8g2Init(&u8g2);
  38              		.loc 1 18 0
  39 0002 0548     		ldr	r0, .L4
  40 0004 FFF7FEFF 		bl	u8g2Init
ARM GAS  C:\Users\master\AppData\Local\Temp\cc8w77Vt.s 			page 2


  41              	.LVL0:
  42              	.L2:
  19:Core/Src/mysetp.c ****     
  20:Core/Src/mysetp.c **** 
  21:Core/Src/mysetp.c ****     while (1)
  22:Core/Src/mysetp.c ****     {
  23:Core/Src/mysetp.c ****         HAL_GPIO_WritePin(GPIOB, GPIO_PIN_12, GPIO_PIN_SET);
  43              		.loc 1 23 0 discriminator 1
  44 0008 0122     		movs	r2, #1
  45 000a 4FF48051 		mov	r1, #4096
  46 000e 0348     		ldr	r0, .L4+4
  47 0010 FFF7FEFF 		bl	HAL_GPIO_WritePin
  48              	.LVL1:
  49 0014 F8E7     		b	.L2
  50              	.L5:
  51 0016 00BF     		.align	2
  52              	.L4:
  53 0018 00000000 		.word	u8g2
  54 001c 000C0140 		.word	1073810432
  55              		.cfi_endproc
  56              	.LFE66:
  58              		.section	.text.HAL_GPIO_EXTI_Callback,"ax",%progbits
  59              		.align	2
  60              		.global	HAL_GPIO_EXTI_Callback
  61              		.thumb
  62              		.thumb_func
  64              	HAL_GPIO_EXTI_Callback:
  65              	.LFB67:
  24:Core/Src/mysetp.c ****        // HAL_GPIO_WritePin(GPIOB, GPIO_PIN_12, GPIO_PIN_RESET);
  25:Core/Src/mysetp.c ****      /*
  26:Core/Src/mysetp.c ****         u8g2_SetFont(&u8g2, u8g2_font_6x13_tr  );
  27:Core/Src/mysetp.c ****         u8g2_DrawCircle(&u8g2,64,mydist,10,U8G2_DRAW_ALL);
  28:Core/Src/mysetp.c ****         u8g2_DrawStr(&u8g2,0,10,"Neotoxic: me@qvqol.cn");
  29:Core/Src/mysetp.c ****         u8g2_DrawLine(&u8g2,10,60,118,60);
  30:Core/Src/mysetp.c ****         u8g2_DrawLine(&u8g2,10,20,10,60);
  31:Core/Src/mysetp.c ****         //u8g2_DrawXBM(&u8g2,12,10,16,48,bmp);
  32:Core/Src/mysetp.c ****         u8g2_SendBuffer(&u8g2);
  33:Core/Src/mysetp.c ****         HAL_Delay(10);
  34:Core/Src/mysetp.c ****         HAL_GPIO_WritePin(GPIOB, GPIO_PIN_12, GPIO_PIN_RESET);
  35:Core/Src/mysetp.c ****         HAL_Delay(10);
  36:Core/Src/mysetp.c ****         HAL_GPIO_WritePin(GPIOB, GPIO_PIN_12, GPIO_PIN_SET);
  37:Core/Src/mysetp.c ****     
  38:Core/Src/mysetp.c ****         if (flag)
  39:Core/Src/mysetp.c ****         {
  40:Core/Src/mysetp.c ****            if (mydist>35)
  41:Core/Src/mysetp.c ****            mydist+=2;
  42:Core/Src/mysetp.c ****            else
  43:Core/Src/mysetp.c ****            mydist+=1;
  44:Core/Src/mysetp.c **** 
  45:Core/Src/mysetp.c ****            if (mydist>49)
  46:Core/Src/mysetp.c ****              flag=0;
  47:Core/Src/mysetp.c ****         }else{
  48:Core/Src/mysetp.c ****         if (mydist>35)
  49:Core/Src/mysetp.c ****            mydist-=2;
  50:Core/Src/mysetp.c ****            else
  51:Core/Src/mysetp.c ****            mydist-=1;
  52:Core/Src/mysetp.c ****            if (mydist<21)
ARM GAS  C:\Users\master\AppData\Local\Temp\cc8w77Vt.s 			page 3


  53:Core/Src/mysetp.c ****              flag=1;
  54:Core/Src/mysetp.c ****         }
  55:Core/Src/mysetp.c ****         u8g2_ClearBuffer(&u8g2);*/
  56:Core/Src/mysetp.c ****      
  57:Core/Src/mysetp.c ****     }
  58:Core/Src/mysetp.c ****     
  59:Core/Src/mysetp.c ****     
  60:Core/Src/mysetp.c **** 
  61:Core/Src/mysetp.c **** 
  62:Core/Src/mysetp.c **** }
  63:Core/Src/mysetp.c **** 
  64:Core/Src/mysetp.c **** 
  65:Core/Src/mysetp.c **** 
  66:Core/Src/mysetp.c **** void HAL_GPIO_EXTI_Callback(uint16_t GPIO_Pin)
  67:Core/Src/mysetp.c **** {
  66              		.loc 1 67 0
  67              		.cfi_startproc
  68              		@ args = 0, pretend = 0, frame = 0
  69              		@ frame_needed = 0, uses_anonymous_args = 0
  70              	.LVL2:
  68:Core/Src/mysetp.c **** 	if(GPIO_Pin==GPIO_PIN_13)
  71              		.loc 1 68 0
  72 0000 B0F5005F 		cmp	r0, #8192
  73 0004 06D1     		bne	.L9
  67:Core/Src/mysetp.c **** 	if(GPIO_Pin==GPIO_PIN_13)
  74              		.loc 1 67 0
  75 0006 08B5     		push	{r3, lr}
  76              	.LCFI1:
  77              		.cfi_def_cfa_offset 8
  78              		.cfi_offset 3, -8
  79              		.cfi_offset 14, -4
  69:Core/Src/mysetp.c ****         HAL_GPIO_TogglePin(GPIOB,GPIO_PIN_12); 
  80              		.loc 1 69 0
  81 0008 4FF48051 		mov	r1, #4096
  82 000c 0248     		ldr	r0, .L10
  83              	.LVL3:
  84 000e FFF7FEFF 		bl	HAL_GPIO_TogglePin
  85              	.LVL4:
  86 0012 08BD     		pop	{r3, pc}
  87              	.LVL5:
  88              	.L9:
  89              	.LCFI2:
  90              		.cfi_def_cfa_offset 0
  91              		.cfi_restore 3
  92              		.cfi_restore 14
  93 0014 7047     		bx	lr
  94              	.L11:
  95 0016 00BF     		.align	2
  96              	.L10:
  97 0018 000C0140 		.word	1073810432
  98              		.cfi_endproc
  99              	.LFE67:
 101              		.global	flag
 102              		.global	mydist
 103              		.global	bmp
 104              		.comm	u8g2,148,4
 105              		.global	dds
ARM GAS  C:\Users\master\AppData\Local\Temp\cc8w77Vt.s 			page 4


 106              		.section	.data.mydist,"aw",%progbits
 109              	mydist:
 110 0000 28       		.byte	40
 111              		.section	.data.bmp,"aw",%progbits
 112              		.align	2
 115              	bmp:
 116 0000 F8       		.byte	-8
 117 0001 0F       		.byte	15
 118 0002 08       		.byte	8
 119 0003 08       		.byte	8
 120 0004 08       		.byte	8
 121 0005 08       		.byte	8
 122 0006 F8       		.byte	-8
 123 0007 0F       		.byte	15
 124 0008 08       		.byte	8
 125 0009 08       		.byte	8
 126 000a 08       		.byte	8
 127 000b 08       		.byte	8
 128 000c F8       		.byte	-8
 129 000d 0F       		.byte	15
 130 000e 00       		.byte	0
 131 000f 00       		.byte	0
 132 0010 FF       		.byte	-1
 133 0011 7F       		.byte	127
 134 0012 80       		.byte	-128
 135 0013 00       		.byte	0
 136 0014 88       		.byte	-120
 137 0015 00       		.byte	0
 138 0016 88       		.byte	-120
 139 0017 1F       		.byte	31
 140 0018 88       		.byte	-120
 141 0019 00       		.byte	0
 142 001a 94       		.byte	-108
 143 001b 00       		.byte	0
 144 001c A2       		.byte	-94
 145 001d 00       		.byte	0
 146 001e C1       		.byte	-63
 147 001f 7F       		.byte	127
 148 0020 40       		.byte	64
 149 0021 00       		.byte	0
 150 0022 40       		.byte	64
 151 0023 00       		.byte	0
 152 0024 E0       		.byte	-32
 153 0025 0F       		.byte	15
 154 0026 10       		.byte	16
 155 0027 04       		.byte	4
 156 0028 1C       		.byte	28
 157 0029 02       		.byte	2
 158 002a 20       		.byte	32
 159 002b 01       		.byte	1
 160 002c C0       		.byte	-64
 161 002d 02       		.byte	2
 162 002e 30       		.byte	48
 163 002f 01       		.byte	1
 164 0030 8E       		.byte	-114
 165 0031 1F       		.byte	31
 166 0032 40       		.byte	64
ARM GAS  C:\Users\master\AppData\Local\Temp\cc8w77Vt.s 			page 5


 167 0033 10       		.byte	16
 168 0034 30       		.byte	48
 169 0035 08       		.byte	8
 170 0036 4C       		.byte	76
 171 0037 04       		.byte	4
 172 0038 80       		.byte	-128
 173 0039 02       		.byte	2
 174 003a 80       		.byte	-128
 175 003b 01       		.byte	1
 176 003c 70       		.byte	112
 177 003d 00       		.byte	0
 178 003e 0E       		.byte	14
 179 003f 00       		.byte	0
 180 0040 80       		.byte	-128
 181 0041 00       		.byte	0
 182 0042 80       		.byte	-128
 183 0043 00       		.byte	0
 184 0044 80       		.byte	-128
 185 0045 00       		.byte	0
 186 0046 90       		.byte	-112
 187 0047 04       		.byte	4
 188 0048 90       		.byte	-112
 189 0049 08       		.byte	8
 190 004a 88       		.byte	-120
 191 004b 10       		.byte	16
 192 004c 88       		.byte	-120
 193 004d 20       		.byte	32
 194 004e 84       		.byte	-124
 195 004f 28       		.byte	40
 196 0050 82       		.byte	-126
 197 0051 08       		.byte	8
 198 0052 80       		.byte	-128
 199 0053 04       		.byte	4
 200 0054 00       		.byte	0
 201 0055 02       		.byte	2
 202 0056 00       		.byte	0
 203 0057 01       		.byte	1
 204 0058 80       		.byte	-128
 205 0059 00       		.byte	0
 206 005a 40       		.byte	64
 207 005b 00       		.byte	0
 208 005c 30       		.byte	48
 209 005d 00       		.byte	0
 210 005e 0E       		.byte	14
 211 005f 00       		.byte	0
 212              		.section	.data.flag,"aw",%progbits
 215              	flag:
 216 0000 01       		.byte	1
 217              		.section	.data.dds,"aw",%progbits
 218              		.align	2
 221              	dds:
 222 0000 0B       		.byte	11
 223 0001 16       		.byte	22
 224              		.text
 225              	.Letext0:
 226              		.file 2 "c:\\program files (x86)\\gnu tools arm embedded\\5.4 2016q3\\arm-none-eabi\\include\\mach
 227              		.file 3 "c:\\program files (x86)\\gnu tools arm embedded\\5.4 2016q3\\arm-none-eabi\\include\\sys\
ARM GAS  C:\Users\master\AppData\Local\Temp\cc8w77Vt.s 			page 6


 228              		.file 4 "Drivers/CMSIS/Device/ST/STM32F1xx/Include/stm32f103xb.h"
 229              		.file 5 "u8g2_lib/u8x8.h"
 230              		.file 6 "u8g2_lib/u8g2.h"
 231              		.file 7 "Drivers/CMSIS/Include/core_cm3.h"
 232              		.file 8 "Core/Inc/oled.h"
 233              		.file 9 "Drivers/STM32F1xx_HAL_Driver/Inc/stm32f1xx_hal_gpio.h"
ARM GAS  C:\Users\master\AppData\Local\Temp\cc8w77Vt.s 			page 7

