ARM GAS  C:\Users\master\AppData\Local\Temp\cce5fE0X.s 			page 1


   1              		.syntax unified
   2              		.cpu cortex-m3
   3              		.fpu softvfp
   4              		.eabi_attribute 20, 1
   5              		.eabi_attribute 21, 1
   6              		.eabi_attribute 23, 3
   7              		.eabi_attribute 24, 1
   8              		.eabi_attribute 25, 1
   9              		.eabi_attribute 26, 1
  10              		.eabi_attribute 30, 1
  11              		.eabi_attribute 34, 1
  12              		.eabi_attribute 18, 4
  13              		.thumb
  14              		.syntax unified
  15              		.file	"stm32f1xx_hal_msp.c"
  16              		.text
  17              	.Ltext0:
  18              		.cfi_sections	.debug_frame
  19              		.section	.text.HAL_MspInit,"ax",%progbits
  20              		.align	2
  21              		.global	HAL_MspInit
  22              		.thumb
  23              		.thumb_func
  25              	HAL_MspInit:
  26              	.LFB65:
  27              		.file 1 "Core/Src/stm32f1xx_hal_msp.c"
   1:Core/Src/stm32f1xx_hal_msp.c **** /* USER CODE BEGIN Header */
   2:Core/Src/stm32f1xx_hal_msp.c **** /**
   3:Core/Src/stm32f1xx_hal_msp.c ****   ******************************************************************************
   4:Core/Src/stm32f1xx_hal_msp.c ****   * @file         stm32f1xx_hal_msp.c
   5:Core/Src/stm32f1xx_hal_msp.c ****   * @brief        This file provides code for the MSP Initialization
   6:Core/Src/stm32f1xx_hal_msp.c ****   *               and de-Initialization codes.
   7:Core/Src/stm32f1xx_hal_msp.c ****   ******************************************************************************
   8:Core/Src/stm32f1xx_hal_msp.c ****   * @attention
   9:Core/Src/stm32f1xx_hal_msp.c ****   *
  10:Core/Src/stm32f1xx_hal_msp.c ****   * <h2><center>&copy; Copyright (c) 2021 STMicroelectronics.
  11:Core/Src/stm32f1xx_hal_msp.c ****   * All rights reserved.</center></h2>
  12:Core/Src/stm32f1xx_hal_msp.c ****   *
  13:Core/Src/stm32f1xx_hal_msp.c ****   * This software component is licensed by ST under BSD 3-Clause license,
  14:Core/Src/stm32f1xx_hal_msp.c ****   * the "License"; You may not use this file except in compliance with the
  15:Core/Src/stm32f1xx_hal_msp.c ****   * License. You may obtain a copy of the License at:
  16:Core/Src/stm32f1xx_hal_msp.c ****   *                        opensource.org/licenses/BSD-3-Clause
  17:Core/Src/stm32f1xx_hal_msp.c ****   *
  18:Core/Src/stm32f1xx_hal_msp.c ****   ******************************************************************************
  19:Core/Src/stm32f1xx_hal_msp.c ****   */
  20:Core/Src/stm32f1xx_hal_msp.c **** /* USER CODE END Header */
  21:Core/Src/stm32f1xx_hal_msp.c **** 
  22:Core/Src/stm32f1xx_hal_msp.c **** /* Includes ------------------------------------------------------------------*/
  23:Core/Src/stm32f1xx_hal_msp.c **** #include "main.h"
  24:Core/Src/stm32f1xx_hal_msp.c **** /* USER CODE BEGIN Includes */
  25:Core/Src/stm32f1xx_hal_msp.c **** 
  26:Core/Src/stm32f1xx_hal_msp.c **** /* USER CODE END Includes */
  27:Core/Src/stm32f1xx_hal_msp.c **** extern DMA_HandleTypeDef hdma_usart1_tx;
  28:Core/Src/stm32f1xx_hal_msp.c **** 
  29:Core/Src/stm32f1xx_hal_msp.c **** extern DMA_HandleTypeDef hdma_usart1_rx;
  30:Core/Src/stm32f1xx_hal_msp.c **** 
  31:Core/Src/stm32f1xx_hal_msp.c **** /* Private typedef -----------------------------------------------------------*/
ARM GAS  C:\Users\master\AppData\Local\Temp\cce5fE0X.s 			page 2


  32:Core/Src/stm32f1xx_hal_msp.c **** /* USER CODE BEGIN TD */
  33:Core/Src/stm32f1xx_hal_msp.c **** 
  34:Core/Src/stm32f1xx_hal_msp.c **** /* USER CODE END TD */
  35:Core/Src/stm32f1xx_hal_msp.c **** 
  36:Core/Src/stm32f1xx_hal_msp.c **** /* Private define ------------------------------------------------------------*/
  37:Core/Src/stm32f1xx_hal_msp.c **** /* USER CODE BEGIN Define */
  38:Core/Src/stm32f1xx_hal_msp.c **** 
  39:Core/Src/stm32f1xx_hal_msp.c **** /* USER CODE END Define */
  40:Core/Src/stm32f1xx_hal_msp.c **** 
  41:Core/Src/stm32f1xx_hal_msp.c **** /* Private macro -------------------------------------------------------------*/
  42:Core/Src/stm32f1xx_hal_msp.c **** /* USER CODE BEGIN Macro */
  43:Core/Src/stm32f1xx_hal_msp.c **** 
  44:Core/Src/stm32f1xx_hal_msp.c **** /* USER CODE END Macro */
  45:Core/Src/stm32f1xx_hal_msp.c **** 
  46:Core/Src/stm32f1xx_hal_msp.c **** /* Private variables ---------------------------------------------------------*/
  47:Core/Src/stm32f1xx_hal_msp.c **** /* USER CODE BEGIN PV */
  48:Core/Src/stm32f1xx_hal_msp.c **** 
  49:Core/Src/stm32f1xx_hal_msp.c **** /* USER CODE END PV */
  50:Core/Src/stm32f1xx_hal_msp.c **** 
  51:Core/Src/stm32f1xx_hal_msp.c **** /* Private function prototypes -----------------------------------------------*/
  52:Core/Src/stm32f1xx_hal_msp.c **** /* USER CODE BEGIN PFP */
  53:Core/Src/stm32f1xx_hal_msp.c **** 
  54:Core/Src/stm32f1xx_hal_msp.c **** /* USER CODE END PFP */
  55:Core/Src/stm32f1xx_hal_msp.c **** 
  56:Core/Src/stm32f1xx_hal_msp.c **** /* External functions --------------------------------------------------------*/
  57:Core/Src/stm32f1xx_hal_msp.c **** /* USER CODE BEGIN ExternalFunctions */
  58:Core/Src/stm32f1xx_hal_msp.c **** 
  59:Core/Src/stm32f1xx_hal_msp.c **** /* USER CODE END ExternalFunctions */
  60:Core/Src/stm32f1xx_hal_msp.c **** 
  61:Core/Src/stm32f1xx_hal_msp.c **** /* USER CODE BEGIN 0 */
  62:Core/Src/stm32f1xx_hal_msp.c **** 
  63:Core/Src/stm32f1xx_hal_msp.c **** /* USER CODE END 0 */
  64:Core/Src/stm32f1xx_hal_msp.c **** /**
  65:Core/Src/stm32f1xx_hal_msp.c ****   * Initializes the Global MSP.
  66:Core/Src/stm32f1xx_hal_msp.c ****   */
  67:Core/Src/stm32f1xx_hal_msp.c **** void HAL_MspInit(void)
  68:Core/Src/stm32f1xx_hal_msp.c **** {
  28              		.loc 1 68 0
  29              		.cfi_startproc
  30              		@ args = 0, pretend = 0, frame = 8
  31              		@ frame_needed = 0, uses_anonymous_args = 0
  32              		@ link register save eliminated.
  33 0000 82B0     		sub	sp, sp, #8
  34              	.LCFI0:
  35              		.cfi_def_cfa_offset 8
  36              	.LBB2:
  69:Core/Src/stm32f1xx_hal_msp.c ****   /* USER CODE BEGIN MspInit 0 */
  70:Core/Src/stm32f1xx_hal_msp.c **** 
  71:Core/Src/stm32f1xx_hal_msp.c ****   /* USER CODE END MspInit 0 */
  72:Core/Src/stm32f1xx_hal_msp.c **** 
  73:Core/Src/stm32f1xx_hal_msp.c ****   __HAL_RCC_AFIO_CLK_ENABLE();
  37              		.loc 1 73 0
  38 0002 0E4B     		ldr	r3, .L3
  39 0004 9A69     		ldr	r2, [r3, #24]
  40 0006 42F00102 		orr	r2, r2, #1
  41 000a 9A61     		str	r2, [r3, #24]
  42 000c 9A69     		ldr	r2, [r3, #24]
ARM GAS  C:\Users\master\AppData\Local\Temp\cce5fE0X.s 			page 3


  43 000e 02F00102 		and	r2, r2, #1
  44 0012 0092     		str	r2, [sp]
  45 0014 009A     		ldr	r2, [sp]
  46              	.LBE2:
  47              	.LBB3:
  74:Core/Src/stm32f1xx_hal_msp.c ****   __HAL_RCC_PWR_CLK_ENABLE();
  48              		.loc 1 74 0
  49 0016 DA69     		ldr	r2, [r3, #28]
  50 0018 42F08052 		orr	r2, r2, #268435456
  51 001c DA61     		str	r2, [r3, #28]
  52 001e DB69     		ldr	r3, [r3, #28]
  53 0020 03F08053 		and	r3, r3, #268435456
  54 0024 0193     		str	r3, [sp, #4]
  55 0026 019B     		ldr	r3, [sp, #4]
  56              	.LBE3:
  57              	.LBB4:
  75:Core/Src/stm32f1xx_hal_msp.c **** 
  76:Core/Src/stm32f1xx_hal_msp.c ****   /* System interrupt init*/
  77:Core/Src/stm32f1xx_hal_msp.c **** 
  78:Core/Src/stm32f1xx_hal_msp.c ****   /** DISABLE: JTAG-DP Disabled and SW-DP Disabled
  79:Core/Src/stm32f1xx_hal_msp.c ****   */
  80:Core/Src/stm32f1xx_hal_msp.c ****   __HAL_AFIO_REMAP_SWJ_DISABLE();
  58              		.loc 1 80 0
  59 0028 054A     		ldr	r2, .L3+4
  60 002a 5368     		ldr	r3, [r2, #4]
  61              	.LVL0:
  62 002c 23F0E063 		bic	r3, r3, #117440512
  63              	.LVL1:
  64 0030 43F08063 		orr	r3, r3, #67108864
  65              	.LVL2:
  66 0034 5360     		str	r3, [r2, #4]
  67              	.LBE4:
  81:Core/Src/stm32f1xx_hal_msp.c **** 
  82:Core/Src/stm32f1xx_hal_msp.c ****   /* USER CODE BEGIN MspInit 1 */
  83:Core/Src/stm32f1xx_hal_msp.c **** 
  84:Core/Src/stm32f1xx_hal_msp.c ****   /* USER CODE END MspInit 1 */
  85:Core/Src/stm32f1xx_hal_msp.c **** }
  68              		.loc 1 85 0
  69 0036 02B0     		add	sp, sp, #8
  70              	.LCFI1:
  71              		.cfi_def_cfa_offset 0
  72              		@ sp needed
  73 0038 7047     		bx	lr
  74              	.L4:
  75 003a 00BF     		.align	2
  76              	.L3:
  77 003c 00100240 		.word	1073876992
  78 0040 00000140 		.word	1073807360
  79              		.cfi_endproc
  80              	.LFE65:
  82              		.section	.text.HAL_I2C_MspInit,"ax",%progbits
  83              		.align	2
  84              		.global	HAL_I2C_MspInit
  85              		.thumb
  86              		.thumb_func
  88              	HAL_I2C_MspInit:
  89              	.LFB66:
ARM GAS  C:\Users\master\AppData\Local\Temp\cce5fE0X.s 			page 4


  86:Core/Src/stm32f1xx_hal_msp.c **** 
  87:Core/Src/stm32f1xx_hal_msp.c **** /**
  88:Core/Src/stm32f1xx_hal_msp.c **** * @brief I2C MSP Initialization
  89:Core/Src/stm32f1xx_hal_msp.c **** * This function configures the hardware resources used in this example
  90:Core/Src/stm32f1xx_hal_msp.c **** * @param hi2c: I2C handle pointer
  91:Core/Src/stm32f1xx_hal_msp.c **** * @retval None
  92:Core/Src/stm32f1xx_hal_msp.c **** */
  93:Core/Src/stm32f1xx_hal_msp.c **** void HAL_I2C_MspInit(I2C_HandleTypeDef* hi2c)
  94:Core/Src/stm32f1xx_hal_msp.c **** {
  90              		.loc 1 94 0
  91              		.cfi_startproc
  92              		@ args = 0, pretend = 0, frame = 24
  93              		@ frame_needed = 0, uses_anonymous_args = 0
  94              	.LVL3:
  95 0000 10B5     		push	{r4, lr}
  96              	.LCFI2:
  97              		.cfi_def_cfa_offset 8
  98              		.cfi_offset 4, -8
  99              		.cfi_offset 14, -4
 100 0002 86B0     		sub	sp, sp, #24
 101              	.LCFI3:
 102              		.cfi_def_cfa_offset 32
  95:Core/Src/stm32f1xx_hal_msp.c ****   GPIO_InitTypeDef GPIO_InitStruct = {0};
 103              		.loc 1 95 0
 104 0004 0023     		movs	r3, #0
 105 0006 0293     		str	r3, [sp, #8]
 106 0008 0393     		str	r3, [sp, #12]
 107 000a 0493     		str	r3, [sp, #16]
 108 000c 0593     		str	r3, [sp, #20]
  96:Core/Src/stm32f1xx_hal_msp.c ****   if(hi2c->Instance==I2C1)
 109              		.loc 1 96 0
 110 000e 0268     		ldr	r2, [r0]
 111 0010 144B     		ldr	r3, .L8
 112 0012 9A42     		cmp	r2, r3
 113 0014 24D1     		bne	.L5
 114              	.LBB5:
  97:Core/Src/stm32f1xx_hal_msp.c ****   {
  98:Core/Src/stm32f1xx_hal_msp.c ****   /* USER CODE BEGIN I2C1_MspInit 0 */
  99:Core/Src/stm32f1xx_hal_msp.c **** 
 100:Core/Src/stm32f1xx_hal_msp.c ****   /* USER CODE END I2C1_MspInit 0 */
 101:Core/Src/stm32f1xx_hal_msp.c **** 
 102:Core/Src/stm32f1xx_hal_msp.c ****     __HAL_RCC_GPIOB_CLK_ENABLE();
 115              		.loc 1 102 0
 116 0016 144C     		ldr	r4, .L8+4
 117 0018 A369     		ldr	r3, [r4, #24]
 118 001a 43F00803 		orr	r3, r3, #8
 119 001e A361     		str	r3, [r4, #24]
 120 0020 A369     		ldr	r3, [r4, #24]
 121 0022 03F00803 		and	r3, r3, #8
 122 0026 0093     		str	r3, [sp]
 123 0028 009B     		ldr	r3, [sp]
 124              	.LBE5:
 103:Core/Src/stm32f1xx_hal_msp.c ****     /**I2C1 GPIO Configuration
 104:Core/Src/stm32f1xx_hal_msp.c ****     PB6     ------> I2C1_SCL
 105:Core/Src/stm32f1xx_hal_msp.c ****     PB7     ------> I2C1_SDA
 106:Core/Src/stm32f1xx_hal_msp.c ****     */
 107:Core/Src/stm32f1xx_hal_msp.c ****     GPIO_InitStruct.Pin = GPIO_PIN_6|GPIO_PIN_7;
ARM GAS  C:\Users\master\AppData\Local\Temp\cce5fE0X.s 			page 5


 125              		.loc 1 107 0
 126 002a C023     		movs	r3, #192
 127 002c 0293     		str	r3, [sp, #8]
 108:Core/Src/stm32f1xx_hal_msp.c ****     GPIO_InitStruct.Mode = GPIO_MODE_AF_OD;
 128              		.loc 1 108 0
 129 002e 1223     		movs	r3, #18
 130 0030 0393     		str	r3, [sp, #12]
 109:Core/Src/stm32f1xx_hal_msp.c ****     GPIO_InitStruct.Speed = GPIO_SPEED_FREQ_HIGH;
 131              		.loc 1 109 0
 132 0032 0323     		movs	r3, #3
 133 0034 0593     		str	r3, [sp, #20]
 110:Core/Src/stm32f1xx_hal_msp.c ****     HAL_GPIO_Init(GPIOB, &GPIO_InitStruct);
 134              		.loc 1 110 0
 135 0036 02A9     		add	r1, sp, #8
 136 0038 0C48     		ldr	r0, .L8+8
 137              	.LVL4:
 138 003a FFF7FEFF 		bl	HAL_GPIO_Init
 139              	.LVL5:
 140              	.LBB6:
 111:Core/Src/stm32f1xx_hal_msp.c **** 
 112:Core/Src/stm32f1xx_hal_msp.c ****     /* Peripheral clock enable */
 113:Core/Src/stm32f1xx_hal_msp.c ****     __HAL_RCC_I2C1_CLK_ENABLE();
 141              		.loc 1 113 0
 142 003e E369     		ldr	r3, [r4, #28]
 143 0040 43F40013 		orr	r3, r3, #2097152
 144 0044 E361     		str	r3, [r4, #28]
 145 0046 E369     		ldr	r3, [r4, #28]
 146 0048 03F40013 		and	r3, r3, #2097152
 147 004c 0193     		str	r3, [sp, #4]
 148 004e 019B     		ldr	r3, [sp, #4]
 149              	.LBE6:
 114:Core/Src/stm32f1xx_hal_msp.c ****     /* I2C1 interrupt Init */
 115:Core/Src/stm32f1xx_hal_msp.c ****     HAL_NVIC_SetPriority(I2C1_EV_IRQn, 0, 0);
 150              		.loc 1 115 0
 151 0050 0022     		movs	r2, #0
 152 0052 1146     		mov	r1, r2
 153 0054 1F20     		movs	r0, #31
 154 0056 FFF7FEFF 		bl	HAL_NVIC_SetPriority
 155              	.LVL6:
 116:Core/Src/stm32f1xx_hal_msp.c ****     HAL_NVIC_EnableIRQ(I2C1_EV_IRQn);
 156              		.loc 1 116 0
 157 005a 1F20     		movs	r0, #31
 158 005c FFF7FEFF 		bl	HAL_NVIC_EnableIRQ
 159              	.LVL7:
 160              	.L5:
 117:Core/Src/stm32f1xx_hal_msp.c ****   /* USER CODE BEGIN I2C1_MspInit 1 */
 118:Core/Src/stm32f1xx_hal_msp.c **** 
 119:Core/Src/stm32f1xx_hal_msp.c ****   /* USER CODE END I2C1_MspInit 1 */
 120:Core/Src/stm32f1xx_hal_msp.c ****   }
 121:Core/Src/stm32f1xx_hal_msp.c **** 
 122:Core/Src/stm32f1xx_hal_msp.c **** }
 161              		.loc 1 122 0
 162 0060 06B0     		add	sp, sp, #24
 163              	.LCFI4:
 164              		.cfi_def_cfa_offset 8
 165              		@ sp needed
 166 0062 10BD     		pop	{r4, pc}
ARM GAS  C:\Users\master\AppData\Local\Temp\cce5fE0X.s 			page 6


 167              	.L9:
 168              		.align	2
 169              	.L8:
 170 0064 00540040 		.word	1073763328
 171 0068 00100240 		.word	1073876992
 172 006c 000C0140 		.word	1073810432
 173              		.cfi_endproc
 174              	.LFE66:
 176              		.section	.text.HAL_I2C_MspDeInit,"ax",%progbits
 177              		.align	2
 178              		.global	HAL_I2C_MspDeInit
 179              		.thumb
 180              		.thumb_func
 182              	HAL_I2C_MspDeInit:
 183              	.LFB67:
 123:Core/Src/stm32f1xx_hal_msp.c **** 
 124:Core/Src/stm32f1xx_hal_msp.c **** /**
 125:Core/Src/stm32f1xx_hal_msp.c **** * @brief I2C MSP De-Initialization
 126:Core/Src/stm32f1xx_hal_msp.c **** * This function freeze the hardware resources used in this example
 127:Core/Src/stm32f1xx_hal_msp.c **** * @param hi2c: I2C handle pointer
 128:Core/Src/stm32f1xx_hal_msp.c **** * @retval None
 129:Core/Src/stm32f1xx_hal_msp.c **** */
 130:Core/Src/stm32f1xx_hal_msp.c **** void HAL_I2C_MspDeInit(I2C_HandleTypeDef* hi2c)
 131:Core/Src/stm32f1xx_hal_msp.c **** {
 184              		.loc 1 131 0
 185              		.cfi_startproc
 186              		@ args = 0, pretend = 0, frame = 0
 187              		@ frame_needed = 0, uses_anonymous_args = 0
 188              	.LVL8:
 132:Core/Src/stm32f1xx_hal_msp.c ****   if(hi2c->Instance==I2C1)
 189              		.loc 1 132 0
 190 0000 0268     		ldr	r2, [r0]
 191 0002 0B4B     		ldr	r3, .L14
 192 0004 9A42     		cmp	r2, r3
 193 0006 12D1     		bne	.L13
 131:Core/Src/stm32f1xx_hal_msp.c ****   if(hi2c->Instance==I2C1)
 194              		.loc 1 131 0
 195 0008 10B5     		push	{r4, lr}
 196              	.LCFI5:
 197              		.cfi_def_cfa_offset 8
 198              		.cfi_offset 4, -8
 199              		.cfi_offset 14, -4
 133:Core/Src/stm32f1xx_hal_msp.c ****   {
 134:Core/Src/stm32f1xx_hal_msp.c ****   /* USER CODE BEGIN I2C1_MspDeInit 0 */
 135:Core/Src/stm32f1xx_hal_msp.c **** 
 136:Core/Src/stm32f1xx_hal_msp.c ****   /* USER CODE END I2C1_MspDeInit 0 */
 137:Core/Src/stm32f1xx_hal_msp.c ****     /* Peripheral clock disable */
 138:Core/Src/stm32f1xx_hal_msp.c ****     __HAL_RCC_I2C1_CLK_DISABLE();
 200              		.loc 1 138 0
 201 000a 0A4A     		ldr	r2, .L14+4
 202 000c D369     		ldr	r3, [r2, #28]
 203 000e 23F40013 		bic	r3, r3, #2097152
 204 0012 D361     		str	r3, [r2, #28]
 139:Core/Src/stm32f1xx_hal_msp.c **** 
 140:Core/Src/stm32f1xx_hal_msp.c ****     /**I2C1 GPIO Configuration
 141:Core/Src/stm32f1xx_hal_msp.c ****     PB6     ------> I2C1_SCL
 142:Core/Src/stm32f1xx_hal_msp.c ****     PB7     ------> I2C1_SDA
ARM GAS  C:\Users\master\AppData\Local\Temp\cce5fE0X.s 			page 7


 143:Core/Src/stm32f1xx_hal_msp.c ****     */
 144:Core/Src/stm32f1xx_hal_msp.c ****     HAL_GPIO_DeInit(GPIOB, GPIO_PIN_6);
 205              		.loc 1 144 0
 206 0014 084C     		ldr	r4, .L14+8
 207 0016 4021     		movs	r1, #64
 208 0018 2046     		mov	r0, r4
 209              	.LVL9:
 210 001a FFF7FEFF 		bl	HAL_GPIO_DeInit
 211              	.LVL10:
 145:Core/Src/stm32f1xx_hal_msp.c **** 
 146:Core/Src/stm32f1xx_hal_msp.c ****     HAL_GPIO_DeInit(GPIOB, GPIO_PIN_7);
 212              		.loc 1 146 0
 213 001e 8021     		movs	r1, #128
 214 0020 2046     		mov	r0, r4
 215 0022 FFF7FEFF 		bl	HAL_GPIO_DeInit
 216              	.LVL11:
 147:Core/Src/stm32f1xx_hal_msp.c **** 
 148:Core/Src/stm32f1xx_hal_msp.c ****     /* I2C1 interrupt DeInit */
 149:Core/Src/stm32f1xx_hal_msp.c ****     HAL_NVIC_DisableIRQ(I2C1_EV_IRQn);
 217              		.loc 1 149 0
 218 0026 1F20     		movs	r0, #31
 219 0028 FFF7FEFF 		bl	HAL_NVIC_DisableIRQ
 220              	.LVL12:
 221 002c 10BD     		pop	{r4, pc}
 222              	.LVL13:
 223              	.L13:
 224              	.LCFI6:
 225              		.cfi_def_cfa_offset 0
 226              		.cfi_restore 4
 227              		.cfi_restore 14
 228 002e 7047     		bx	lr
 229              	.L15:
 230              		.align	2
 231              	.L14:
 232 0030 00540040 		.word	1073763328
 233 0034 00100240 		.word	1073876992
 234 0038 000C0140 		.word	1073810432
 235              		.cfi_endproc
 236              	.LFE67:
 238              		.section	.text.HAL_TIM_Base_MspInit,"ax",%progbits
 239              		.align	2
 240              		.global	HAL_TIM_Base_MspInit
 241              		.thumb
 242              		.thumb_func
 244              	HAL_TIM_Base_MspInit:
 245              	.LFB68:
 150:Core/Src/stm32f1xx_hal_msp.c ****   /* USER CODE BEGIN I2C1_MspDeInit 1 */
 151:Core/Src/stm32f1xx_hal_msp.c **** 
 152:Core/Src/stm32f1xx_hal_msp.c ****   /* USER CODE END I2C1_MspDeInit 1 */
 153:Core/Src/stm32f1xx_hal_msp.c ****   }
 154:Core/Src/stm32f1xx_hal_msp.c **** 
 155:Core/Src/stm32f1xx_hal_msp.c **** }
 156:Core/Src/stm32f1xx_hal_msp.c **** 
 157:Core/Src/stm32f1xx_hal_msp.c **** /**
 158:Core/Src/stm32f1xx_hal_msp.c **** * @brief TIM_Base MSP Initialization
 159:Core/Src/stm32f1xx_hal_msp.c **** * This function configures the hardware resources used in this example
 160:Core/Src/stm32f1xx_hal_msp.c **** * @param htim_base: TIM_Base handle pointer
ARM GAS  C:\Users\master\AppData\Local\Temp\cce5fE0X.s 			page 8


 161:Core/Src/stm32f1xx_hal_msp.c **** * @retval None
 162:Core/Src/stm32f1xx_hal_msp.c **** */
 163:Core/Src/stm32f1xx_hal_msp.c **** void HAL_TIM_Base_MspInit(TIM_HandleTypeDef* htim_base)
 164:Core/Src/stm32f1xx_hal_msp.c **** {
 246              		.loc 1 164 0
 247              		.cfi_startproc
 248              		@ args = 0, pretend = 0, frame = 8
 249              		@ frame_needed = 0, uses_anonymous_args = 0
 250              	.LVL14:
 165:Core/Src/stm32f1xx_hal_msp.c ****   if(htim_base->Instance==TIM2)
 251              		.loc 1 165 0
 252 0000 0368     		ldr	r3, [r0]
 253 0002 B3F1804F 		cmp	r3, #1073741824
 254 0006 17D1     		bne	.L19
 164:Core/Src/stm32f1xx_hal_msp.c ****   if(htim_base->Instance==TIM2)
 255              		.loc 1 164 0
 256 0008 00B5     		push	{lr}
 257              	.LCFI7:
 258              		.cfi_def_cfa_offset 4
 259              		.cfi_offset 14, -4
 260 000a 83B0     		sub	sp, sp, #12
 261              	.LCFI8:
 262              		.cfi_def_cfa_offset 16
 263              	.LBB7:
 166:Core/Src/stm32f1xx_hal_msp.c ****   {
 167:Core/Src/stm32f1xx_hal_msp.c ****   /* USER CODE BEGIN TIM2_MspInit 0 */
 168:Core/Src/stm32f1xx_hal_msp.c **** 
 169:Core/Src/stm32f1xx_hal_msp.c ****   /* USER CODE END TIM2_MspInit 0 */
 170:Core/Src/stm32f1xx_hal_msp.c ****     /* Peripheral clock enable */
 171:Core/Src/stm32f1xx_hal_msp.c ****     __HAL_RCC_TIM2_CLK_ENABLE();
 264              		.loc 1 171 0
 265 000c 03F50433 		add	r3, r3, #135168
 266 0010 DA69     		ldr	r2, [r3, #28]
 267 0012 42F00102 		orr	r2, r2, #1
 268 0016 DA61     		str	r2, [r3, #28]
 269 0018 DB69     		ldr	r3, [r3, #28]
 270 001a 03F00103 		and	r3, r3, #1
 271 001e 0193     		str	r3, [sp, #4]
 272 0020 019B     		ldr	r3, [sp, #4]
 273              	.LBE7:
 172:Core/Src/stm32f1xx_hal_msp.c ****     /* TIM2 interrupt Init */
 173:Core/Src/stm32f1xx_hal_msp.c ****     HAL_NVIC_SetPriority(TIM2_IRQn, 0, 0);
 274              		.loc 1 173 0
 275 0022 0022     		movs	r2, #0
 276 0024 1146     		mov	r1, r2
 277 0026 1C20     		movs	r0, #28
 278              	.LVL15:
 279 0028 FFF7FEFF 		bl	HAL_NVIC_SetPriority
 280              	.LVL16:
 174:Core/Src/stm32f1xx_hal_msp.c ****     HAL_NVIC_EnableIRQ(TIM2_IRQn);
 281              		.loc 1 174 0
 282 002c 1C20     		movs	r0, #28
 283 002e FFF7FEFF 		bl	HAL_NVIC_EnableIRQ
 284              	.LVL17:
 175:Core/Src/stm32f1xx_hal_msp.c ****   /* USER CODE BEGIN TIM2_MspInit 1 */
 176:Core/Src/stm32f1xx_hal_msp.c **** 
 177:Core/Src/stm32f1xx_hal_msp.c ****   /* USER CODE END TIM2_MspInit 1 */
ARM GAS  C:\Users\master\AppData\Local\Temp\cce5fE0X.s 			page 9


 178:Core/Src/stm32f1xx_hal_msp.c ****   }
 179:Core/Src/stm32f1xx_hal_msp.c **** 
 180:Core/Src/stm32f1xx_hal_msp.c **** }
 285              		.loc 1 180 0
 286 0032 03B0     		add	sp, sp, #12
 287              	.LCFI9:
 288              		.cfi_def_cfa_offset 4
 289              		@ sp needed
 290 0034 5DF804FB 		ldr	pc, [sp], #4
 291              	.LVL18:
 292              	.L19:
 293              	.LCFI10:
 294              		.cfi_def_cfa_offset 0
 295              		.cfi_restore 14
 296 0038 7047     		bx	lr
 297              		.cfi_endproc
 298              	.LFE68:
 300 003a 00BF     		.section	.text.HAL_TIM_Base_MspDeInit,"ax",%progbits
 301              		.align	2
 302              		.global	HAL_TIM_Base_MspDeInit
 303              		.thumb
 304              		.thumb_func
 306              	HAL_TIM_Base_MspDeInit:
 307              	.LFB69:
 181:Core/Src/stm32f1xx_hal_msp.c **** 
 182:Core/Src/stm32f1xx_hal_msp.c **** /**
 183:Core/Src/stm32f1xx_hal_msp.c **** * @brief TIM_Base MSP De-Initialization
 184:Core/Src/stm32f1xx_hal_msp.c **** * This function freeze the hardware resources used in this example
 185:Core/Src/stm32f1xx_hal_msp.c **** * @param htim_base: TIM_Base handle pointer
 186:Core/Src/stm32f1xx_hal_msp.c **** * @retval None
 187:Core/Src/stm32f1xx_hal_msp.c **** */
 188:Core/Src/stm32f1xx_hal_msp.c **** void HAL_TIM_Base_MspDeInit(TIM_HandleTypeDef* htim_base)
 189:Core/Src/stm32f1xx_hal_msp.c **** {
 308              		.loc 1 189 0
 309              		.cfi_startproc
 310              		@ args = 0, pretend = 0, frame = 0
 311              		@ frame_needed = 0, uses_anonymous_args = 0
 312              	.LVL19:
 313 0000 08B5     		push	{r3, lr}
 314              	.LCFI11:
 315              		.cfi_def_cfa_offset 8
 316              		.cfi_offset 3, -8
 317              		.cfi_offset 14, -4
 190:Core/Src/stm32f1xx_hal_msp.c ****   if(htim_base->Instance==TIM2)
 318              		.loc 1 190 0
 319 0002 0368     		ldr	r3, [r0]
 320 0004 B3F1804F 		cmp	r3, #1073741824
 321 0008 07D1     		bne	.L20
 191:Core/Src/stm32f1xx_hal_msp.c ****   {
 192:Core/Src/stm32f1xx_hal_msp.c ****   /* USER CODE BEGIN TIM2_MspDeInit 0 */
 193:Core/Src/stm32f1xx_hal_msp.c **** 
 194:Core/Src/stm32f1xx_hal_msp.c ****   /* USER CODE END TIM2_MspDeInit 0 */
 195:Core/Src/stm32f1xx_hal_msp.c ****     /* Peripheral clock disable */
 196:Core/Src/stm32f1xx_hal_msp.c ****     __HAL_RCC_TIM2_CLK_DISABLE();
 322              		.loc 1 196 0
 323 000a 044A     		ldr	r2, .L23
 324 000c D369     		ldr	r3, [r2, #28]
ARM GAS  C:\Users\master\AppData\Local\Temp\cce5fE0X.s 			page 10


 325 000e 23F00103 		bic	r3, r3, #1
 326 0012 D361     		str	r3, [r2, #28]
 197:Core/Src/stm32f1xx_hal_msp.c **** 
 198:Core/Src/stm32f1xx_hal_msp.c ****     /* TIM2 interrupt DeInit */
 199:Core/Src/stm32f1xx_hal_msp.c ****     HAL_NVIC_DisableIRQ(TIM2_IRQn);
 327              		.loc 1 199 0
 328 0014 1C20     		movs	r0, #28
 329              	.LVL20:
 330 0016 FFF7FEFF 		bl	HAL_NVIC_DisableIRQ
 331              	.LVL21:
 332              	.L20:
 333 001a 08BD     		pop	{r3, pc}
 334              	.L24:
 335              		.align	2
 336              	.L23:
 337 001c 00100240 		.word	1073876992
 338              		.cfi_endproc
 339              	.LFE69:
 341              		.section	.text.HAL_UART_MspInit,"ax",%progbits
 342              		.align	2
 343              		.global	HAL_UART_MspInit
 344              		.thumb
 345              		.thumb_func
 347              	HAL_UART_MspInit:
 348              	.LFB70:
 200:Core/Src/stm32f1xx_hal_msp.c ****   /* USER CODE BEGIN TIM2_MspDeInit 1 */
 201:Core/Src/stm32f1xx_hal_msp.c **** 
 202:Core/Src/stm32f1xx_hal_msp.c ****   /* USER CODE END TIM2_MspDeInit 1 */
 203:Core/Src/stm32f1xx_hal_msp.c ****   }
 204:Core/Src/stm32f1xx_hal_msp.c **** 
 205:Core/Src/stm32f1xx_hal_msp.c **** }
 206:Core/Src/stm32f1xx_hal_msp.c **** 
 207:Core/Src/stm32f1xx_hal_msp.c **** /**
 208:Core/Src/stm32f1xx_hal_msp.c **** * @brief UART MSP Initialization
 209:Core/Src/stm32f1xx_hal_msp.c **** * This function configures the hardware resources used in this example
 210:Core/Src/stm32f1xx_hal_msp.c **** * @param huart: UART handle pointer
 211:Core/Src/stm32f1xx_hal_msp.c **** * @retval None
 212:Core/Src/stm32f1xx_hal_msp.c **** */
 213:Core/Src/stm32f1xx_hal_msp.c **** void HAL_UART_MspInit(UART_HandleTypeDef* huart)
 214:Core/Src/stm32f1xx_hal_msp.c **** {
 349              		.loc 1 214 0
 350              		.cfi_startproc
 351              		@ args = 0, pretend = 0, frame = 24
 352              		@ frame_needed = 0, uses_anonymous_args = 0
 353              	.LVL22:
 354 0000 70B5     		push	{r4, r5, r6, lr}
 355              	.LCFI12:
 356              		.cfi_def_cfa_offset 16
 357              		.cfi_offset 4, -16
 358              		.cfi_offset 5, -12
 359              		.cfi_offset 6, -8
 360              		.cfi_offset 14, -4
 361 0002 86B0     		sub	sp, sp, #24
 362              	.LCFI13:
 363              		.cfi_def_cfa_offset 40
 215:Core/Src/stm32f1xx_hal_msp.c ****   GPIO_InitTypeDef GPIO_InitStruct = {0};
 364              		.loc 1 215 0
ARM GAS  C:\Users\master\AppData\Local\Temp\cce5fE0X.s 			page 11


 365 0004 0023     		movs	r3, #0
 366 0006 0293     		str	r3, [sp, #8]
 367 0008 0393     		str	r3, [sp, #12]
 368 000a 0493     		str	r3, [sp, #16]
 369 000c 0593     		str	r3, [sp, #20]
 216:Core/Src/stm32f1xx_hal_msp.c ****   if(huart->Instance==USART1)
 370              		.loc 1 216 0
 371 000e 0268     		ldr	r2, [r0]
 372 0010 324B     		ldr	r3, .L30
 373 0012 9A42     		cmp	r2, r3
 374 0014 60D1     		bne	.L25
 375 0016 0446     		mov	r4, r0
 376              	.LBB8:
 217:Core/Src/stm32f1xx_hal_msp.c ****   {
 218:Core/Src/stm32f1xx_hal_msp.c ****   /* USER CODE BEGIN USART1_MspInit 0 */
 219:Core/Src/stm32f1xx_hal_msp.c **** 
 220:Core/Src/stm32f1xx_hal_msp.c ****   /* USER CODE END USART1_MspInit 0 */
 221:Core/Src/stm32f1xx_hal_msp.c ****     /* Peripheral clock enable */
 222:Core/Src/stm32f1xx_hal_msp.c ****     __HAL_RCC_USART1_CLK_ENABLE();
 377              		.loc 1 222 0
 378 0018 03F55843 		add	r3, r3, #55296
 379 001c 9A69     		ldr	r2, [r3, #24]
 380 001e 42F48042 		orr	r2, r2, #16384
 381 0022 9A61     		str	r2, [r3, #24]
 382 0024 9A69     		ldr	r2, [r3, #24]
 383 0026 02F48042 		and	r2, r2, #16384
 384 002a 0092     		str	r2, [sp]
 385 002c 009A     		ldr	r2, [sp]
 386              	.LBE8:
 387              	.LBB9:
 223:Core/Src/stm32f1xx_hal_msp.c **** 
 224:Core/Src/stm32f1xx_hal_msp.c ****     __HAL_RCC_GPIOA_CLK_ENABLE();
 388              		.loc 1 224 0
 389 002e 9A69     		ldr	r2, [r3, #24]
 390 0030 42F00402 		orr	r2, r2, #4
 391 0034 9A61     		str	r2, [r3, #24]
 392 0036 9B69     		ldr	r3, [r3, #24]
 393 0038 03F00403 		and	r3, r3, #4
 394 003c 0193     		str	r3, [sp, #4]
 395 003e 019B     		ldr	r3, [sp, #4]
 396              	.LBE9:
 225:Core/Src/stm32f1xx_hal_msp.c ****     /**USART1 GPIO Configuration
 226:Core/Src/stm32f1xx_hal_msp.c ****     PA9     ------> USART1_TX
 227:Core/Src/stm32f1xx_hal_msp.c ****     PA10     ------> USART1_RX
 228:Core/Src/stm32f1xx_hal_msp.c ****     */
 229:Core/Src/stm32f1xx_hal_msp.c ****     GPIO_InitStruct.Pin = GPIO_PIN_9;
 397              		.loc 1 229 0
 398 0040 4FF40073 		mov	r3, #512
 399 0044 0293     		str	r3, [sp, #8]
 230:Core/Src/stm32f1xx_hal_msp.c ****     GPIO_InitStruct.Mode = GPIO_MODE_AF_PP;
 400              		.loc 1 230 0
 401 0046 0223     		movs	r3, #2
 402 0048 0393     		str	r3, [sp, #12]
 231:Core/Src/stm32f1xx_hal_msp.c ****     GPIO_InitStruct.Speed = GPIO_SPEED_FREQ_HIGH;
 403              		.loc 1 231 0
 404 004a 0323     		movs	r3, #3
 405 004c 0593     		str	r3, [sp, #20]
ARM GAS  C:\Users\master\AppData\Local\Temp\cce5fE0X.s 			page 12


 232:Core/Src/stm32f1xx_hal_msp.c ****     HAL_GPIO_Init(GPIOA, &GPIO_InitStruct);
 406              		.loc 1 232 0
 407 004e 244E     		ldr	r6, .L30+4
 408 0050 02A9     		add	r1, sp, #8
 409 0052 3046     		mov	r0, r6
 410              	.LVL23:
 411 0054 FFF7FEFF 		bl	HAL_GPIO_Init
 412              	.LVL24:
 233:Core/Src/stm32f1xx_hal_msp.c **** 
 234:Core/Src/stm32f1xx_hal_msp.c ****     GPIO_InitStruct.Pin = GPIO_PIN_10;
 413              		.loc 1 234 0
 414 0058 4FF48063 		mov	r3, #1024
 415 005c 0293     		str	r3, [sp, #8]
 235:Core/Src/stm32f1xx_hal_msp.c ****     GPIO_InitStruct.Mode = GPIO_MODE_INPUT;
 416              		.loc 1 235 0
 417 005e 0025     		movs	r5, #0
 418 0060 0395     		str	r5, [sp, #12]
 236:Core/Src/stm32f1xx_hal_msp.c ****     GPIO_InitStruct.Pull = GPIO_NOPULL;
 419              		.loc 1 236 0
 420 0062 0495     		str	r5, [sp, #16]
 237:Core/Src/stm32f1xx_hal_msp.c ****     HAL_GPIO_Init(GPIOA, &GPIO_InitStruct);
 421              		.loc 1 237 0
 422 0064 02A9     		add	r1, sp, #8
 423 0066 3046     		mov	r0, r6
 424 0068 FFF7FEFF 		bl	HAL_GPIO_Init
 425              	.LVL25:
 238:Core/Src/stm32f1xx_hal_msp.c **** 
 239:Core/Src/stm32f1xx_hal_msp.c ****     /* USART1 DMA Init */
 240:Core/Src/stm32f1xx_hal_msp.c ****     /* USART1_TX Init */
 241:Core/Src/stm32f1xx_hal_msp.c ****     hdma_usart1_tx.Instance = DMA1_Channel4;
 426              		.loc 1 241 0
 427 006c 1D48     		ldr	r0, .L30+8
 428 006e 1E4B     		ldr	r3, .L30+12
 429 0070 0360     		str	r3, [r0]
 242:Core/Src/stm32f1xx_hal_msp.c ****     hdma_usart1_tx.Init.Direction = DMA_MEMORY_TO_PERIPH;
 430              		.loc 1 242 0
 431 0072 1023     		movs	r3, #16
 432 0074 4360     		str	r3, [r0, #4]
 243:Core/Src/stm32f1xx_hal_msp.c ****     hdma_usart1_tx.Init.PeriphInc = DMA_PINC_DISABLE;
 433              		.loc 1 243 0
 434 0076 8560     		str	r5, [r0, #8]
 244:Core/Src/stm32f1xx_hal_msp.c ****     hdma_usart1_tx.Init.MemInc = DMA_MINC_ENABLE;
 435              		.loc 1 244 0
 436 0078 8023     		movs	r3, #128
 437 007a C360     		str	r3, [r0, #12]
 245:Core/Src/stm32f1xx_hal_msp.c ****     hdma_usart1_tx.Init.PeriphDataAlignment = DMA_PDATAALIGN_BYTE;
 438              		.loc 1 245 0
 439 007c 0561     		str	r5, [r0, #16]
 246:Core/Src/stm32f1xx_hal_msp.c ****     hdma_usart1_tx.Init.MemDataAlignment = DMA_MDATAALIGN_BYTE;
 440              		.loc 1 246 0
 441 007e 4561     		str	r5, [r0, #20]
 247:Core/Src/stm32f1xx_hal_msp.c ****     hdma_usart1_tx.Init.Mode = DMA_CIRCULAR;
 442              		.loc 1 247 0
 443 0080 2023     		movs	r3, #32
 444 0082 8361     		str	r3, [r0, #24]
 248:Core/Src/stm32f1xx_hal_msp.c ****     hdma_usart1_tx.Init.Priority = DMA_PRIORITY_MEDIUM;
 445              		.loc 1 248 0
ARM GAS  C:\Users\master\AppData\Local\Temp\cce5fE0X.s 			page 13


 446 0084 4FF48053 		mov	r3, #4096
 447 0088 C361     		str	r3, [r0, #28]
 249:Core/Src/stm32f1xx_hal_msp.c ****     if (HAL_DMA_Init(&hdma_usart1_tx) != HAL_OK)
 448              		.loc 1 249 0
 449 008a FFF7FEFF 		bl	HAL_DMA_Init
 450              	.LVL26:
 451 008e 08B1     		cbz	r0, .L27
 250:Core/Src/stm32f1xx_hal_msp.c ****     {
 251:Core/Src/stm32f1xx_hal_msp.c ****       Error_Handler();
 452              		.loc 1 251 0
 453 0090 FFF7FEFF 		bl	Error_Handler
 454              	.LVL27:
 455              	.L27:
 252:Core/Src/stm32f1xx_hal_msp.c ****     }
 253:Core/Src/stm32f1xx_hal_msp.c **** 
 254:Core/Src/stm32f1xx_hal_msp.c ****     __HAL_LINKDMA(huart,hdmatx,hdma_usart1_tx);
 456              		.loc 1 254 0
 457 0094 134B     		ldr	r3, .L30+8
 458 0096 6363     		str	r3, [r4, #52]
 459 0098 5C62     		str	r4, [r3, #36]
 255:Core/Src/stm32f1xx_hal_msp.c **** 
 256:Core/Src/stm32f1xx_hal_msp.c ****     /* USART1_RX Init */
 257:Core/Src/stm32f1xx_hal_msp.c ****     hdma_usart1_rx.Instance = DMA1_Channel5;
 460              		.loc 1 257 0
 461 009a 1448     		ldr	r0, .L30+16
 462 009c 144B     		ldr	r3, .L30+20
 463 009e 0360     		str	r3, [r0]
 258:Core/Src/stm32f1xx_hal_msp.c ****     hdma_usart1_rx.Init.Direction = DMA_PERIPH_TO_MEMORY;
 464              		.loc 1 258 0
 465 00a0 0023     		movs	r3, #0
 466 00a2 4360     		str	r3, [r0, #4]
 259:Core/Src/stm32f1xx_hal_msp.c ****     hdma_usart1_rx.Init.PeriphInc = DMA_PINC_DISABLE;
 467              		.loc 1 259 0
 468 00a4 8360     		str	r3, [r0, #8]
 260:Core/Src/stm32f1xx_hal_msp.c ****     hdma_usart1_rx.Init.MemInc = DMA_MINC_ENABLE;
 469              		.loc 1 260 0
 470 00a6 8022     		movs	r2, #128
 471 00a8 C260     		str	r2, [r0, #12]
 261:Core/Src/stm32f1xx_hal_msp.c ****     hdma_usart1_rx.Init.PeriphDataAlignment = DMA_PDATAALIGN_BYTE;
 472              		.loc 1 261 0
 473 00aa 0361     		str	r3, [r0, #16]
 262:Core/Src/stm32f1xx_hal_msp.c ****     hdma_usart1_rx.Init.MemDataAlignment = DMA_MDATAALIGN_BYTE;
 474              		.loc 1 262 0
 475 00ac 4361     		str	r3, [r0, #20]
 263:Core/Src/stm32f1xx_hal_msp.c ****     hdma_usart1_rx.Init.Mode = DMA_CIRCULAR;
 476              		.loc 1 263 0
 477 00ae 2023     		movs	r3, #32
 478 00b0 8361     		str	r3, [r0, #24]
 264:Core/Src/stm32f1xx_hal_msp.c ****     hdma_usart1_rx.Init.Priority = DMA_PRIORITY_MEDIUM;
 479              		.loc 1 264 0
 480 00b2 4FF48053 		mov	r3, #4096
 481 00b6 C361     		str	r3, [r0, #28]
 265:Core/Src/stm32f1xx_hal_msp.c ****     if (HAL_DMA_Init(&hdma_usart1_rx) != HAL_OK)
 482              		.loc 1 265 0
 483 00b8 FFF7FEFF 		bl	HAL_DMA_Init
 484              	.LVL28:
 485 00bc 08B1     		cbz	r0, .L28
ARM GAS  C:\Users\master\AppData\Local\Temp\cce5fE0X.s 			page 14


 266:Core/Src/stm32f1xx_hal_msp.c ****     {
 267:Core/Src/stm32f1xx_hal_msp.c ****       Error_Handler();
 486              		.loc 1 267 0
 487 00be FFF7FEFF 		bl	Error_Handler
 488              	.LVL29:
 489              	.L28:
 268:Core/Src/stm32f1xx_hal_msp.c ****     }
 269:Core/Src/stm32f1xx_hal_msp.c **** 
 270:Core/Src/stm32f1xx_hal_msp.c ****     __HAL_LINKDMA(huart,hdmarx,hdma_usart1_rx);
 490              		.loc 1 270 0
 491 00c2 0A4B     		ldr	r3, .L30+16
 492 00c4 A363     		str	r3, [r4, #56]
 493 00c6 5C62     		str	r4, [r3, #36]
 271:Core/Src/stm32f1xx_hal_msp.c **** 
 272:Core/Src/stm32f1xx_hal_msp.c ****     /* USART1 interrupt Init */
 273:Core/Src/stm32f1xx_hal_msp.c ****     HAL_NVIC_SetPriority(USART1_IRQn, 0, 0);
 494              		.loc 1 273 0
 495 00c8 0022     		movs	r2, #0
 496 00ca 1146     		mov	r1, r2
 497 00cc 2520     		movs	r0, #37
 498 00ce FFF7FEFF 		bl	HAL_NVIC_SetPriority
 499              	.LVL30:
 274:Core/Src/stm32f1xx_hal_msp.c ****     HAL_NVIC_EnableIRQ(USART1_IRQn);
 500              		.loc 1 274 0
 501 00d2 2520     		movs	r0, #37
 502 00d4 FFF7FEFF 		bl	HAL_NVIC_EnableIRQ
 503              	.LVL31:
 504              	.L25:
 275:Core/Src/stm32f1xx_hal_msp.c ****   /* USER CODE BEGIN USART1_MspInit 1 */
 276:Core/Src/stm32f1xx_hal_msp.c **** 
 277:Core/Src/stm32f1xx_hal_msp.c ****   /* USER CODE END USART1_MspInit 1 */
 278:Core/Src/stm32f1xx_hal_msp.c ****   }
 279:Core/Src/stm32f1xx_hal_msp.c **** 
 280:Core/Src/stm32f1xx_hal_msp.c **** }
 505              		.loc 1 280 0
 506 00d8 06B0     		add	sp, sp, #24
 507              	.LCFI14:
 508              		.cfi_def_cfa_offset 16
 509              		@ sp needed
 510 00da 70BD     		pop	{r4, r5, r6, pc}
 511              	.L31:
 512              		.align	2
 513              	.L30:
 514 00dc 00380140 		.word	1073821696
 515 00e0 00080140 		.word	1073809408
 516 00e4 00000000 		.word	hdma_usart1_tx
 517 00e8 44000240 		.word	1073872964
 518 00ec 00000000 		.word	hdma_usart1_rx
 519 00f0 58000240 		.word	1073872984
 520              		.cfi_endproc
 521              	.LFE70:
 523              		.section	.text.HAL_UART_MspDeInit,"ax",%progbits
 524              		.align	2
 525              		.global	HAL_UART_MspDeInit
 526              		.thumb
 527              		.thumb_func
 529              	HAL_UART_MspDeInit:
ARM GAS  C:\Users\master\AppData\Local\Temp\cce5fE0X.s 			page 15


 530              	.LFB71:
 281:Core/Src/stm32f1xx_hal_msp.c **** 
 282:Core/Src/stm32f1xx_hal_msp.c **** /**
 283:Core/Src/stm32f1xx_hal_msp.c **** * @brief UART MSP De-Initialization
 284:Core/Src/stm32f1xx_hal_msp.c **** * This function freeze the hardware resources used in this example
 285:Core/Src/stm32f1xx_hal_msp.c **** * @param huart: UART handle pointer
 286:Core/Src/stm32f1xx_hal_msp.c **** * @retval None
 287:Core/Src/stm32f1xx_hal_msp.c **** */
 288:Core/Src/stm32f1xx_hal_msp.c **** void HAL_UART_MspDeInit(UART_HandleTypeDef* huart)
 289:Core/Src/stm32f1xx_hal_msp.c **** {
 531              		.loc 1 289 0
 532              		.cfi_startproc
 533              		@ args = 0, pretend = 0, frame = 0
 534              		@ frame_needed = 0, uses_anonymous_args = 0
 535              	.LVL32:
 290:Core/Src/stm32f1xx_hal_msp.c ****   if(huart->Instance==USART1)
 536              		.loc 1 290 0
 537 0000 0268     		ldr	r2, [r0]
 538 0002 0D4B     		ldr	r3, .L36
 539 0004 9A42     		cmp	r2, r3
 540 0006 15D1     		bne	.L35
 289:Core/Src/stm32f1xx_hal_msp.c ****   if(huart->Instance==USART1)
 541              		.loc 1 289 0
 542 0008 10B5     		push	{r4, lr}
 543              	.LCFI15:
 544              		.cfi_def_cfa_offset 8
 545              		.cfi_offset 4, -8
 546              		.cfi_offset 14, -4
 547 000a 0446     		mov	r4, r0
 291:Core/Src/stm32f1xx_hal_msp.c ****   {
 292:Core/Src/stm32f1xx_hal_msp.c ****   /* USER CODE BEGIN USART1_MspDeInit 0 */
 293:Core/Src/stm32f1xx_hal_msp.c **** 
 294:Core/Src/stm32f1xx_hal_msp.c ****   /* USER CODE END USART1_MspDeInit 0 */
 295:Core/Src/stm32f1xx_hal_msp.c ****     /* Peripheral clock disable */
 296:Core/Src/stm32f1xx_hal_msp.c ****     __HAL_RCC_USART1_CLK_DISABLE();
 548              		.loc 1 296 0
 549 000c 0B4A     		ldr	r2, .L36+4
 550 000e 9369     		ldr	r3, [r2, #24]
 551 0010 23F48043 		bic	r3, r3, #16384
 552 0014 9361     		str	r3, [r2, #24]
 297:Core/Src/stm32f1xx_hal_msp.c **** 
 298:Core/Src/stm32f1xx_hal_msp.c ****     /**USART1 GPIO Configuration
 299:Core/Src/stm32f1xx_hal_msp.c ****     PA9     ------> USART1_TX
 300:Core/Src/stm32f1xx_hal_msp.c ****     PA10     ------> USART1_RX
 301:Core/Src/stm32f1xx_hal_msp.c ****     */
 302:Core/Src/stm32f1xx_hal_msp.c ****     HAL_GPIO_DeInit(GPIOA, GPIO_PIN_9|GPIO_PIN_10);
 553              		.loc 1 302 0
 554 0016 4FF4C061 		mov	r1, #1536
 555 001a 0948     		ldr	r0, .L36+8
 556              	.LVL33:
 557 001c FFF7FEFF 		bl	HAL_GPIO_DeInit
 558              	.LVL34:
 303:Core/Src/stm32f1xx_hal_msp.c **** 
 304:Core/Src/stm32f1xx_hal_msp.c ****     /* USART1 DMA DeInit */
 305:Core/Src/stm32f1xx_hal_msp.c ****     HAL_DMA_DeInit(huart->hdmatx);
 559              		.loc 1 305 0
 560 0020 606B     		ldr	r0, [r4, #52]
ARM GAS  C:\Users\master\AppData\Local\Temp\cce5fE0X.s 			page 16


 561 0022 FFF7FEFF 		bl	HAL_DMA_DeInit
 562              	.LVL35:
 306:Core/Src/stm32f1xx_hal_msp.c ****     HAL_DMA_DeInit(huart->hdmarx);
 563              		.loc 1 306 0
 564 0026 A06B     		ldr	r0, [r4, #56]
 565 0028 FFF7FEFF 		bl	HAL_DMA_DeInit
 566              	.LVL36:
 307:Core/Src/stm32f1xx_hal_msp.c **** 
 308:Core/Src/stm32f1xx_hal_msp.c ****     /* USART1 interrupt DeInit */
 309:Core/Src/stm32f1xx_hal_msp.c ****     HAL_NVIC_DisableIRQ(USART1_IRQn);
 567              		.loc 1 309 0
 568 002c 2520     		movs	r0, #37
 569 002e FFF7FEFF 		bl	HAL_NVIC_DisableIRQ
 570              	.LVL37:
 571 0032 10BD     		pop	{r4, pc}
 572              	.LVL38:
 573              	.L35:
 574              	.LCFI16:
 575              		.cfi_def_cfa_offset 0
 576              		.cfi_restore 4
 577              		.cfi_restore 14
 578 0034 7047     		bx	lr
 579              	.L37:
 580 0036 00BF     		.align	2
 581              	.L36:
 582 0038 00380140 		.word	1073821696
 583 003c 00100240 		.word	1073876992
 584 0040 00080140 		.word	1073809408
 585              		.cfi_endproc
 586              	.LFE71:
 588              		.text
 589              	.Letext0:
 590              		.file 2 "c:\\program files (x86)\\gnu tools arm embedded\\5.4 2016q3\\arm-none-eabi\\include\\mach
 591              		.file 3 "c:\\program files (x86)\\gnu tools arm embedded\\5.4 2016q3\\arm-none-eabi\\include\\sys\
 592              		.file 4 "Drivers/CMSIS/Device/ST/STM32F1xx/Include/stm32f103xb.h"
 593              		.file 5 "Drivers/STM32F1xx_HAL_Driver/Inc/stm32f1xx_hal_def.h"
 594              		.file 6 "Drivers/STM32F1xx_HAL_Driver/Inc/stm32f1xx_hal_gpio.h"
 595              		.file 7 "Drivers/STM32F1xx_HAL_Driver/Inc/stm32f1xx_hal_dma.h"
 596              		.file 8 "Drivers/STM32F1xx_HAL_Driver/Inc/stm32f1xx_hal_i2c.h"
 597              		.file 9 "Drivers/STM32F1xx_HAL_Driver/Inc/stm32f1xx_hal_tim.h"
 598              		.file 10 "Drivers/STM32F1xx_HAL_Driver/Inc/stm32f1xx_hal_uart.h"
 599              		.file 11 "Drivers/CMSIS/Include/core_cm3.h"
 600              		.file 12 "Drivers/STM32F1xx_HAL_Driver/Inc/stm32f1xx_hal_cortex.h"
 601              		.file 13 "Core/Inc/main.h"
ARM GAS  C:\Users\master\AppData\Local\Temp\cce5fE0X.s 			page 17

