ARM GAS  C:\Users\master\AppData\Local\Temp\ccmJvhxl.s 			page 1


   1              		.syntax unified
   2              		.cpu cortex-m3
   3              		.fpu softvfp
   4              		.eabi_attribute 20, 1
   5              		.eabi_attribute 21, 1
   6              		.eabi_attribute 23, 3
   7              		.eabi_attribute 24, 1
   8              		.eabi_attribute 25, 1
   9              		.eabi_attribute 26, 1
  10              		.eabi_attribute 30, 1
  11              		.eabi_attribute 34, 1
  12              		.eabi_attribute 18, 4
  13              		.thumb
  14              		.syntax unified
  15              		.file	"u8g2_d_setup.c"
  16              		.text
  17              	.Ltext0:
  18              		.cfi_sections	.debug_frame
  19              		.section	.text.u8g2_Setup_ssd1305_128x32_noname_1,"ax",%progbits
  20              		.align	2
  21              		.global	u8g2_Setup_ssd1305_128x32_noname_1
  22              		.thumb
  23              		.thumb_func
  25              	u8g2_Setup_ssd1305_128x32_noname_1:
  26              	.LFB0:
  27              		.file 1 "u8g2_lib/u8g2_d_setup.c"
   1:u8g2_lib/u8g2_d_setup.c **** /* u8g2_d_setup.c */
   2:u8g2_lib/u8g2_d_setup.c **** /* generated code, codebuild, u8g2 project */
   3:u8g2_lib/u8g2_d_setup.c **** 
   4:u8g2_lib/u8g2_d_setup.c **** #include "u8g2.h"
   5:u8g2_lib/u8g2_d_setup.c **** 
   6:u8g2_lib/u8g2_d_setup.c **** /* ssd1305 */
   7:u8g2_lib/u8g2_d_setup.c **** /* ssd1305 1 */
   8:u8g2_lib/u8g2_d_setup.c **** void u8g2_Setup_ssd1305_128x32_noname_1(u8g2_t *u8g2, const u8g2_cb_t *rotation, u8x8_msg_cb byte_c
   9:u8g2_lib/u8g2_d_setup.c **** {
  28              		.loc 1 9 0
  29              		.cfi_startproc
  30              		@ args = 0, pretend = 0, frame = 8
  31              		@ frame_needed = 0, uses_anonymous_args = 0
  32              	.LVL0:
  33 0000 30B5     		push	{r4, r5, lr}
  34              	.LCFI0:
  35              		.cfi_def_cfa_offset 12
  36              		.cfi_offset 4, -12
  37              		.cfi_offset 5, -8
  38              		.cfi_offset 14, -4
  39 0002 85B0     		sub	sp, sp, #20
  40              	.LCFI1:
  41              		.cfi_def_cfa_offset 32
  42 0004 0446     		mov	r4, r0
  43 0006 0D46     		mov	r5, r1
  10:u8g2_lib/u8g2_d_setup.c ****   uint8_t tile_buf_height;
  11:u8g2_lib/u8g2_d_setup.c ****   uint8_t *buf;
  12:u8g2_lib/u8g2_d_setup.c ****   u8g2_SetupDisplay(u8g2, u8x8_d_ssd1305_128x32_noname, u8x8_cad_001, byte_cb, gpio_and_delay_cb);
  44              		.loc 1 12 0
  45 0008 0093     		str	r3, [sp]
  46 000a 1346     		mov	r3, r2
ARM GAS  C:\Users\master\AppData\Local\Temp\ccmJvhxl.s 			page 2


  47              	.LVL1:
  48 000c 084A     		ldr	r2, .L3
  49              	.LVL2:
  50 000e 0949     		ldr	r1, .L3+4
  51              	.LVL3:
  52 0010 FFF7FEFF 		bl	u8x8_Setup
  53              	.LVL4:
  13:u8g2_lib/u8g2_d_setup.c ****   buf = u8g2_m_16_4_1(&tile_buf_height);
  54              		.loc 1 13 0
  55 0014 0DF10F00 		add	r0, sp, #15
  56 0018 FFF7FEFF 		bl	u8g2_m_16_4_1
  57              	.LVL5:
  14:u8g2_lib/u8g2_d_setup.c ****   u8g2_SetupBuffer(u8g2, buf, tile_buf_height, u8g2_ll_hvline_vertical_top_lsb, rotation);
  58              		.loc 1 14 0
  59 001c 9DF80F20 		ldrb	r2, [sp, #15]	@ zero_extendqisi2
  60 0020 0095     		str	r5, [sp]
  61 0022 054B     		ldr	r3, .L3+8
  62 0024 0146     		mov	r1, r0
  63 0026 2046     		mov	r0, r4
  64              	.LVL6:
  65 0028 FFF7FEFF 		bl	u8g2_SetupBuffer
  66              	.LVL7:
  15:u8g2_lib/u8g2_d_setup.c **** }
  67              		.loc 1 15 0
  68 002c 05B0     		add	sp, sp, #20
  69              	.LCFI2:
  70              		.cfi_def_cfa_offset 12
  71              		@ sp needed
  72 002e 30BD     		pop	{r4, r5, pc}
  73              	.LVL8:
  74              	.L4:
  75              		.align	2
  76              	.L3:
  77 0030 00000000 		.word	u8x8_cad_001
  78 0034 00000000 		.word	u8x8_d_ssd1305_128x32_noname
  79 0038 00000000 		.word	u8g2_ll_hvline_vertical_top_lsb
  80              		.cfi_endproc
  81              	.LFE0:
  83              		.section	.text.u8g2_Setup_ssd1305_128x32_adafruit_1,"ax",%progbits
  84              		.align	2
  85              		.global	u8g2_Setup_ssd1305_128x32_adafruit_1
  86              		.thumb
  87              		.thumb_func
  89              	u8g2_Setup_ssd1305_128x32_adafruit_1:
  90              	.LFB1:
  16:u8g2_lib/u8g2_d_setup.c **** void u8g2_Setup_ssd1305_128x32_adafruit_1(u8g2_t *u8g2, const u8g2_cb_t *rotation, u8x8_msg_cb byte
  17:u8g2_lib/u8g2_d_setup.c **** {
  91              		.loc 1 17 0
  92              		.cfi_startproc
  93              		@ args = 0, pretend = 0, frame = 8
  94              		@ frame_needed = 0, uses_anonymous_args = 0
  95              	.LVL9:
  96 0000 30B5     		push	{r4, r5, lr}
  97              	.LCFI3:
  98              		.cfi_def_cfa_offset 12
  99              		.cfi_offset 4, -12
 100              		.cfi_offset 5, -8
ARM GAS  C:\Users\master\AppData\Local\Temp\ccmJvhxl.s 			page 3


 101              		.cfi_offset 14, -4
 102 0002 85B0     		sub	sp, sp, #20
 103              	.LCFI4:
 104              		.cfi_def_cfa_offset 32
 105 0004 0446     		mov	r4, r0
 106 0006 0D46     		mov	r5, r1
  18:u8g2_lib/u8g2_d_setup.c ****   uint8_t tile_buf_height;
  19:u8g2_lib/u8g2_d_setup.c ****   uint8_t *buf;
  20:u8g2_lib/u8g2_d_setup.c ****   u8g2_SetupDisplay(u8g2, u8x8_d_ssd1305_128x32_adafruit, u8x8_cad_001, byte_cb, gpio_and_delay_cb)
 107              		.loc 1 20 0
 108 0008 0093     		str	r3, [sp]
 109 000a 1346     		mov	r3, r2
 110              	.LVL10:
 111 000c 084A     		ldr	r2, .L7
 112              	.LVL11:
 113 000e 0949     		ldr	r1, .L7+4
 114              	.LVL12:
 115 0010 FFF7FEFF 		bl	u8x8_Setup
 116              	.LVL13:
  21:u8g2_lib/u8g2_d_setup.c ****   buf = u8g2_m_16_4_1(&tile_buf_height);
 117              		.loc 1 21 0
 118 0014 0DF10F00 		add	r0, sp, #15
 119 0018 FFF7FEFF 		bl	u8g2_m_16_4_1
 120              	.LVL14:
  22:u8g2_lib/u8g2_d_setup.c ****   u8g2_SetupBuffer(u8g2, buf, tile_buf_height, u8g2_ll_hvline_vertical_top_lsb, rotation);
 121              		.loc 1 22 0
 122 001c 9DF80F20 		ldrb	r2, [sp, #15]	@ zero_extendqisi2
 123 0020 0095     		str	r5, [sp]
 124 0022 054B     		ldr	r3, .L7+8
 125 0024 0146     		mov	r1, r0
 126 0026 2046     		mov	r0, r4
 127              	.LVL15:
 128 0028 FFF7FEFF 		bl	u8g2_SetupBuffer
 129              	.LVL16:
  23:u8g2_lib/u8g2_d_setup.c **** }
 130              		.loc 1 23 0
 131 002c 05B0     		add	sp, sp, #20
 132              	.LCFI5:
 133              		.cfi_def_cfa_offset 12
 134              		@ sp needed
 135 002e 30BD     		pop	{r4, r5, pc}
 136              	.LVL17:
 137              	.L8:
 138              		.align	2
 139              	.L7:
 140 0030 00000000 		.word	u8x8_cad_001
 141 0034 00000000 		.word	u8x8_d_ssd1305_128x32_adafruit
 142 0038 00000000 		.word	u8g2_ll_hvline_vertical_top_lsb
 143              		.cfi_endproc
 144              	.LFE1:
 146              		.section	.text.u8g2_Setup_ssd1305_128x32_noname_2,"ax",%progbits
 147              		.align	2
 148              		.global	u8g2_Setup_ssd1305_128x32_noname_2
 149              		.thumb
 150              		.thumb_func
 152              	u8g2_Setup_ssd1305_128x32_noname_2:
 153              	.LFB2:
ARM GAS  C:\Users\master\AppData\Local\Temp\ccmJvhxl.s 			page 4


  24:u8g2_lib/u8g2_d_setup.c **** /* ssd1305 2 */
  25:u8g2_lib/u8g2_d_setup.c **** void u8g2_Setup_ssd1305_128x32_noname_2(u8g2_t *u8g2, const u8g2_cb_t *rotation, u8x8_msg_cb byte_c
  26:u8g2_lib/u8g2_d_setup.c **** {
 154              		.loc 1 26 0
 155              		.cfi_startproc
 156              		@ args = 0, pretend = 0, frame = 8
 157              		@ frame_needed = 0, uses_anonymous_args = 0
 158              	.LVL18:
 159 0000 30B5     		push	{r4, r5, lr}
 160              	.LCFI6:
 161              		.cfi_def_cfa_offset 12
 162              		.cfi_offset 4, -12
 163              		.cfi_offset 5, -8
 164              		.cfi_offset 14, -4
 165 0002 85B0     		sub	sp, sp, #20
 166              	.LCFI7:
 167              		.cfi_def_cfa_offset 32
 168 0004 0446     		mov	r4, r0
 169 0006 0D46     		mov	r5, r1
  27:u8g2_lib/u8g2_d_setup.c ****   uint8_t tile_buf_height;
  28:u8g2_lib/u8g2_d_setup.c ****   uint8_t *buf;
  29:u8g2_lib/u8g2_d_setup.c ****   u8g2_SetupDisplay(u8g2, u8x8_d_ssd1305_128x32_noname, u8x8_cad_001, byte_cb, gpio_and_delay_cb);
 170              		.loc 1 29 0
 171 0008 0093     		str	r3, [sp]
 172 000a 1346     		mov	r3, r2
 173              	.LVL19:
 174 000c 084A     		ldr	r2, .L11
 175              	.LVL20:
 176 000e 0949     		ldr	r1, .L11+4
 177              	.LVL21:
 178 0010 FFF7FEFF 		bl	u8x8_Setup
 179              	.LVL22:
  30:u8g2_lib/u8g2_d_setup.c ****   buf = u8g2_m_16_4_2(&tile_buf_height);
 180              		.loc 1 30 0
 181 0014 0DF10F00 		add	r0, sp, #15
 182 0018 FFF7FEFF 		bl	u8g2_m_16_4_2
 183              	.LVL23:
  31:u8g2_lib/u8g2_d_setup.c ****   u8g2_SetupBuffer(u8g2, buf, tile_buf_height, u8g2_ll_hvline_vertical_top_lsb, rotation);
 184              		.loc 1 31 0
 185 001c 9DF80F20 		ldrb	r2, [sp, #15]	@ zero_extendqisi2
 186 0020 0095     		str	r5, [sp]
 187 0022 054B     		ldr	r3, .L11+8
 188 0024 0146     		mov	r1, r0
 189 0026 2046     		mov	r0, r4
 190              	.LVL24:
 191 0028 FFF7FEFF 		bl	u8g2_SetupBuffer
 192              	.LVL25:
  32:u8g2_lib/u8g2_d_setup.c **** }
 193              		.loc 1 32 0
 194 002c 05B0     		add	sp, sp, #20
 195              	.LCFI8:
 196              		.cfi_def_cfa_offset 12
 197              		@ sp needed
 198 002e 30BD     		pop	{r4, r5, pc}
 199              	.LVL26:
 200              	.L12:
 201              		.align	2
ARM GAS  C:\Users\master\AppData\Local\Temp\ccmJvhxl.s 			page 5


 202              	.L11:
 203 0030 00000000 		.word	u8x8_cad_001
 204 0034 00000000 		.word	u8x8_d_ssd1305_128x32_noname
 205 0038 00000000 		.word	u8g2_ll_hvline_vertical_top_lsb
 206              		.cfi_endproc
 207              	.LFE2:
 209              		.section	.text.u8g2_Setup_ssd1305_128x32_adafruit_2,"ax",%progbits
 210              		.align	2
 211              		.global	u8g2_Setup_ssd1305_128x32_adafruit_2
 212              		.thumb
 213              		.thumb_func
 215              	u8g2_Setup_ssd1305_128x32_adafruit_2:
 216              	.LFB3:
  33:u8g2_lib/u8g2_d_setup.c **** void u8g2_Setup_ssd1305_128x32_adafruit_2(u8g2_t *u8g2, const u8g2_cb_t *rotation, u8x8_msg_cb byte
  34:u8g2_lib/u8g2_d_setup.c **** {
 217              		.loc 1 34 0
 218              		.cfi_startproc
 219              		@ args = 0, pretend = 0, frame = 8
 220              		@ frame_needed = 0, uses_anonymous_args = 0
 221              	.LVL27:
 222 0000 30B5     		push	{r4, r5, lr}
 223              	.LCFI9:
 224              		.cfi_def_cfa_offset 12
 225              		.cfi_offset 4, -12
 226              		.cfi_offset 5, -8
 227              		.cfi_offset 14, -4
 228 0002 85B0     		sub	sp, sp, #20
 229              	.LCFI10:
 230              		.cfi_def_cfa_offset 32
 231 0004 0446     		mov	r4, r0
 232 0006 0D46     		mov	r5, r1
  35:u8g2_lib/u8g2_d_setup.c ****   uint8_t tile_buf_height;
  36:u8g2_lib/u8g2_d_setup.c ****   uint8_t *buf;
  37:u8g2_lib/u8g2_d_setup.c ****   u8g2_SetupDisplay(u8g2, u8x8_d_ssd1305_128x32_adafruit, u8x8_cad_001, byte_cb, gpio_and_delay_cb)
 233              		.loc 1 37 0
 234 0008 0093     		str	r3, [sp]
 235 000a 1346     		mov	r3, r2
 236              	.LVL28:
 237 000c 084A     		ldr	r2, .L15
 238              	.LVL29:
 239 000e 0949     		ldr	r1, .L15+4
 240              	.LVL30:
 241 0010 FFF7FEFF 		bl	u8x8_Setup
 242              	.LVL31:
  38:u8g2_lib/u8g2_d_setup.c ****   buf = u8g2_m_16_4_2(&tile_buf_height);
 243              		.loc 1 38 0
 244 0014 0DF10F00 		add	r0, sp, #15
 245 0018 FFF7FEFF 		bl	u8g2_m_16_4_2
 246              	.LVL32:
  39:u8g2_lib/u8g2_d_setup.c ****   u8g2_SetupBuffer(u8g2, buf, tile_buf_height, u8g2_ll_hvline_vertical_top_lsb, rotation);
 247              		.loc 1 39 0
 248 001c 9DF80F20 		ldrb	r2, [sp, #15]	@ zero_extendqisi2
 249 0020 0095     		str	r5, [sp]
 250 0022 054B     		ldr	r3, .L15+8
 251 0024 0146     		mov	r1, r0
 252 0026 2046     		mov	r0, r4
 253              	.LVL33:
ARM GAS  C:\Users\master\AppData\Local\Temp\ccmJvhxl.s 			page 6


 254 0028 FFF7FEFF 		bl	u8g2_SetupBuffer
 255              	.LVL34:
  40:u8g2_lib/u8g2_d_setup.c **** }
 256              		.loc 1 40 0
 257 002c 05B0     		add	sp, sp, #20
 258              	.LCFI11:
 259              		.cfi_def_cfa_offset 12
 260              		@ sp needed
 261 002e 30BD     		pop	{r4, r5, pc}
 262              	.LVL35:
 263              	.L16:
 264              		.align	2
 265              	.L15:
 266 0030 00000000 		.word	u8x8_cad_001
 267 0034 00000000 		.word	u8x8_d_ssd1305_128x32_adafruit
 268 0038 00000000 		.word	u8g2_ll_hvline_vertical_top_lsb
 269              		.cfi_endproc
 270              	.LFE3:
 272              		.section	.text.u8g2_Setup_ssd1305_128x32_noname_f,"ax",%progbits
 273              		.align	2
 274              		.global	u8g2_Setup_ssd1305_128x32_noname_f
 275              		.thumb
 276              		.thumb_func
 278              	u8g2_Setup_ssd1305_128x32_noname_f:
 279              	.LFB4:
  41:u8g2_lib/u8g2_d_setup.c **** /* ssd1305 f */
  42:u8g2_lib/u8g2_d_setup.c **** void u8g2_Setup_ssd1305_128x32_noname_f(u8g2_t *u8g2, const u8g2_cb_t *rotation, u8x8_msg_cb byte_c
  43:u8g2_lib/u8g2_d_setup.c **** {
 280              		.loc 1 43 0
 281              		.cfi_startproc
 282              		@ args = 0, pretend = 0, frame = 8
 283              		@ frame_needed = 0, uses_anonymous_args = 0
 284              	.LVL36:
 285 0000 30B5     		push	{r4, r5, lr}
 286              	.LCFI12:
 287              		.cfi_def_cfa_offset 12
 288              		.cfi_offset 4, -12
 289              		.cfi_offset 5, -8
 290              		.cfi_offset 14, -4
 291 0002 85B0     		sub	sp, sp, #20
 292              	.LCFI13:
 293              		.cfi_def_cfa_offset 32
 294 0004 0446     		mov	r4, r0
 295 0006 0D46     		mov	r5, r1
  44:u8g2_lib/u8g2_d_setup.c ****   uint8_t tile_buf_height;
  45:u8g2_lib/u8g2_d_setup.c ****   uint8_t *buf;
  46:u8g2_lib/u8g2_d_setup.c ****   u8g2_SetupDisplay(u8g2, u8x8_d_ssd1305_128x32_noname, u8x8_cad_001, byte_cb, gpio_and_delay_cb);
 296              		.loc 1 46 0
 297 0008 0093     		str	r3, [sp]
 298 000a 1346     		mov	r3, r2
 299              	.LVL37:
 300 000c 084A     		ldr	r2, .L19
 301              	.LVL38:
 302 000e 0949     		ldr	r1, .L19+4
 303              	.LVL39:
 304 0010 FFF7FEFF 		bl	u8x8_Setup
 305              	.LVL40:
ARM GAS  C:\Users\master\AppData\Local\Temp\ccmJvhxl.s 			page 7


  47:u8g2_lib/u8g2_d_setup.c ****   buf = u8g2_m_16_4_f(&tile_buf_height);
 306              		.loc 1 47 0
 307 0014 0DF10F00 		add	r0, sp, #15
 308 0018 FFF7FEFF 		bl	u8g2_m_16_4_f
 309              	.LVL41:
  48:u8g2_lib/u8g2_d_setup.c ****   u8g2_SetupBuffer(u8g2, buf, tile_buf_height, u8g2_ll_hvline_vertical_top_lsb, rotation);
 310              		.loc 1 48 0
 311 001c 9DF80F20 		ldrb	r2, [sp, #15]	@ zero_extendqisi2
 312 0020 0095     		str	r5, [sp]
 313 0022 054B     		ldr	r3, .L19+8
 314 0024 0146     		mov	r1, r0
 315 0026 2046     		mov	r0, r4
 316              	.LVL42:
 317 0028 FFF7FEFF 		bl	u8g2_SetupBuffer
 318              	.LVL43:
  49:u8g2_lib/u8g2_d_setup.c **** }
 319              		.loc 1 49 0
 320 002c 05B0     		add	sp, sp, #20
 321              	.LCFI14:
 322              		.cfi_def_cfa_offset 12
 323              		@ sp needed
 324 002e 30BD     		pop	{r4, r5, pc}
 325              	.LVL44:
 326              	.L20:
 327              		.align	2
 328              	.L19:
 329 0030 00000000 		.word	u8x8_cad_001
 330 0034 00000000 		.word	u8x8_d_ssd1305_128x32_noname
 331 0038 00000000 		.word	u8g2_ll_hvline_vertical_top_lsb
 332              		.cfi_endproc
 333              	.LFE4:
 335              		.section	.text.u8g2_Setup_ssd1305_128x32_adafruit_f,"ax",%progbits
 336              		.align	2
 337              		.global	u8g2_Setup_ssd1305_128x32_adafruit_f
 338              		.thumb
 339              		.thumb_func
 341              	u8g2_Setup_ssd1305_128x32_adafruit_f:
 342              	.LFB5:
  50:u8g2_lib/u8g2_d_setup.c **** void u8g2_Setup_ssd1305_128x32_adafruit_f(u8g2_t *u8g2, const u8g2_cb_t *rotation, u8x8_msg_cb byte
  51:u8g2_lib/u8g2_d_setup.c **** {
 343              		.loc 1 51 0
 344              		.cfi_startproc
 345              		@ args = 0, pretend = 0, frame = 8
 346              		@ frame_needed = 0, uses_anonymous_args = 0
 347              	.LVL45:
 348 0000 30B5     		push	{r4, r5, lr}
 349              	.LCFI15:
 350              		.cfi_def_cfa_offset 12
 351              		.cfi_offset 4, -12
 352              		.cfi_offset 5, -8
 353              		.cfi_offset 14, -4
 354 0002 85B0     		sub	sp, sp, #20
 355              	.LCFI16:
 356              		.cfi_def_cfa_offset 32
 357 0004 0446     		mov	r4, r0
 358 0006 0D46     		mov	r5, r1
  52:u8g2_lib/u8g2_d_setup.c ****   uint8_t tile_buf_height;
ARM GAS  C:\Users\master\AppData\Local\Temp\ccmJvhxl.s 			page 8


  53:u8g2_lib/u8g2_d_setup.c ****   uint8_t *buf;
  54:u8g2_lib/u8g2_d_setup.c ****   u8g2_SetupDisplay(u8g2, u8x8_d_ssd1305_128x32_adafruit, u8x8_cad_001, byte_cb, gpio_and_delay_cb)
 359              		.loc 1 54 0
 360 0008 0093     		str	r3, [sp]
 361 000a 1346     		mov	r3, r2
 362              	.LVL46:
 363 000c 084A     		ldr	r2, .L23
 364              	.LVL47:
 365 000e 0949     		ldr	r1, .L23+4
 366              	.LVL48:
 367 0010 FFF7FEFF 		bl	u8x8_Setup
 368              	.LVL49:
  55:u8g2_lib/u8g2_d_setup.c ****   buf = u8g2_m_16_4_f(&tile_buf_height);
 369              		.loc 1 55 0
 370 0014 0DF10F00 		add	r0, sp, #15
 371 0018 FFF7FEFF 		bl	u8g2_m_16_4_f
 372              	.LVL50:
  56:u8g2_lib/u8g2_d_setup.c ****   u8g2_SetupBuffer(u8g2, buf, tile_buf_height, u8g2_ll_hvline_vertical_top_lsb, rotation);
 373              		.loc 1 56 0
 374 001c 9DF80F20 		ldrb	r2, [sp, #15]	@ zero_extendqisi2
 375 0020 0095     		str	r5, [sp]
 376 0022 054B     		ldr	r3, .L23+8
 377 0024 0146     		mov	r1, r0
 378 0026 2046     		mov	r0, r4
 379              	.LVL51:
 380 0028 FFF7FEFF 		bl	u8g2_SetupBuffer
 381              	.LVL52:
  57:u8g2_lib/u8g2_d_setup.c **** }
 382              		.loc 1 57 0
 383 002c 05B0     		add	sp, sp, #20
 384              	.LCFI17:
 385              		.cfi_def_cfa_offset 12
 386              		@ sp needed
 387 002e 30BD     		pop	{r4, r5, pc}
 388              	.LVL53:
 389              	.L24:
 390              		.align	2
 391              	.L23:
 392 0030 00000000 		.word	u8x8_cad_001
 393 0034 00000000 		.word	u8x8_d_ssd1305_128x32_adafruit
 394 0038 00000000 		.word	u8g2_ll_hvline_vertical_top_lsb
 395              		.cfi_endproc
 396              	.LFE5:
 398              		.section	.text.u8g2_Setup_ssd1305_i2c_128x32_noname_1,"ax",%progbits
 399              		.align	2
 400              		.global	u8g2_Setup_ssd1305_i2c_128x32_noname_1
 401              		.thumb
 402              		.thumb_func
 404              	u8g2_Setup_ssd1305_i2c_128x32_noname_1:
 405              	.LFB6:
  58:u8g2_lib/u8g2_d_setup.c **** /* ssd1305 */
  59:u8g2_lib/u8g2_d_setup.c **** /* ssd1305 1 */
  60:u8g2_lib/u8g2_d_setup.c **** void u8g2_Setup_ssd1305_i2c_128x32_noname_1(u8g2_t *u8g2, const u8g2_cb_t *rotation, u8x8_msg_cb by
  61:u8g2_lib/u8g2_d_setup.c **** {
 406              		.loc 1 61 0
 407              		.cfi_startproc
 408              		@ args = 0, pretend = 0, frame = 8
ARM GAS  C:\Users\master\AppData\Local\Temp\ccmJvhxl.s 			page 9


 409              		@ frame_needed = 0, uses_anonymous_args = 0
 410              	.LVL54:
 411 0000 30B5     		push	{r4, r5, lr}
 412              	.LCFI18:
 413              		.cfi_def_cfa_offset 12
 414              		.cfi_offset 4, -12
 415              		.cfi_offset 5, -8
 416              		.cfi_offset 14, -4
 417 0002 85B0     		sub	sp, sp, #20
 418              	.LCFI19:
 419              		.cfi_def_cfa_offset 32
 420 0004 0446     		mov	r4, r0
 421 0006 0D46     		mov	r5, r1
  62:u8g2_lib/u8g2_d_setup.c ****   uint8_t tile_buf_height;
  63:u8g2_lib/u8g2_d_setup.c ****   uint8_t *buf;
  64:u8g2_lib/u8g2_d_setup.c ****   u8g2_SetupDisplay(u8g2, u8x8_d_ssd1305_128x32_noname, u8x8_cad_ssd13xx_i2c, byte_cb, gpio_and_del
 422              		.loc 1 64 0
 423 0008 0093     		str	r3, [sp]
 424 000a 1346     		mov	r3, r2
 425              	.LVL55:
 426 000c 084A     		ldr	r2, .L27
 427              	.LVL56:
 428 000e 0949     		ldr	r1, .L27+4
 429              	.LVL57:
 430 0010 FFF7FEFF 		bl	u8x8_Setup
 431              	.LVL58:
  65:u8g2_lib/u8g2_d_setup.c ****   buf = u8g2_m_16_4_1(&tile_buf_height);
 432              		.loc 1 65 0
 433 0014 0DF10F00 		add	r0, sp, #15
 434 0018 FFF7FEFF 		bl	u8g2_m_16_4_1
 435              	.LVL59:
  66:u8g2_lib/u8g2_d_setup.c ****   u8g2_SetupBuffer(u8g2, buf, tile_buf_height, u8g2_ll_hvline_vertical_top_lsb, rotation);
 436              		.loc 1 66 0
 437 001c 9DF80F20 		ldrb	r2, [sp, #15]	@ zero_extendqisi2
 438 0020 0095     		str	r5, [sp]
 439 0022 054B     		ldr	r3, .L27+8
 440 0024 0146     		mov	r1, r0
 441 0026 2046     		mov	r0, r4
 442              	.LVL60:
 443 0028 FFF7FEFF 		bl	u8g2_SetupBuffer
 444              	.LVL61:
  67:u8g2_lib/u8g2_d_setup.c **** }
 445              		.loc 1 67 0
 446 002c 05B0     		add	sp, sp, #20
 447              	.LCFI20:
 448              		.cfi_def_cfa_offset 12
 449              		@ sp needed
 450 002e 30BD     		pop	{r4, r5, pc}
 451              	.LVL62:
 452              	.L28:
 453              		.align	2
 454              	.L27:
 455 0030 00000000 		.word	u8x8_cad_ssd13xx_i2c
 456 0034 00000000 		.word	u8x8_d_ssd1305_128x32_noname
 457 0038 00000000 		.word	u8g2_ll_hvline_vertical_top_lsb
 458              		.cfi_endproc
 459              	.LFE6:
ARM GAS  C:\Users\master\AppData\Local\Temp\ccmJvhxl.s 			page 10


 461              		.section	.text.u8g2_Setup_ssd1305_i2c_128x32_adafruit_1,"ax",%progbits
 462              		.align	2
 463              		.global	u8g2_Setup_ssd1305_i2c_128x32_adafruit_1
 464              		.thumb
 465              		.thumb_func
 467              	u8g2_Setup_ssd1305_i2c_128x32_adafruit_1:
 468              	.LFB7:
  68:u8g2_lib/u8g2_d_setup.c **** void u8g2_Setup_ssd1305_i2c_128x32_adafruit_1(u8g2_t *u8g2, const u8g2_cb_t *rotation, u8x8_msg_cb 
  69:u8g2_lib/u8g2_d_setup.c **** {
 469              		.loc 1 69 0
 470              		.cfi_startproc
 471              		@ args = 0, pretend = 0, frame = 8
 472              		@ frame_needed = 0, uses_anonymous_args = 0
 473              	.LVL63:
 474 0000 30B5     		push	{r4, r5, lr}
 475              	.LCFI21:
 476              		.cfi_def_cfa_offset 12
 477              		.cfi_offset 4, -12
 478              		.cfi_offset 5, -8
 479              		.cfi_offset 14, -4
 480 0002 85B0     		sub	sp, sp, #20
 481              	.LCFI22:
 482              		.cfi_def_cfa_offset 32
 483 0004 0446     		mov	r4, r0
 484 0006 0D46     		mov	r5, r1
  70:u8g2_lib/u8g2_d_setup.c ****   uint8_t tile_buf_height;
  71:u8g2_lib/u8g2_d_setup.c ****   uint8_t *buf;
  72:u8g2_lib/u8g2_d_setup.c ****   u8g2_SetupDisplay(u8g2, u8x8_d_ssd1305_128x32_adafruit, u8x8_cad_ssd13xx_i2c, byte_cb, gpio_and_d
 485              		.loc 1 72 0
 486 0008 0093     		str	r3, [sp]
 487 000a 1346     		mov	r3, r2
 488              	.LVL64:
 489 000c 084A     		ldr	r2, .L31
 490              	.LVL65:
 491 000e 0949     		ldr	r1, .L31+4
 492              	.LVL66:
 493 0010 FFF7FEFF 		bl	u8x8_Setup
 494              	.LVL67:
  73:u8g2_lib/u8g2_d_setup.c ****   buf = u8g2_m_16_4_1(&tile_buf_height);
 495              		.loc 1 73 0
 496 0014 0DF10F00 		add	r0, sp, #15
 497 0018 FFF7FEFF 		bl	u8g2_m_16_4_1
 498              	.LVL68:
  74:u8g2_lib/u8g2_d_setup.c ****   u8g2_SetupBuffer(u8g2, buf, tile_buf_height, u8g2_ll_hvline_vertical_top_lsb, rotation);
 499              		.loc 1 74 0
 500 001c 9DF80F20 		ldrb	r2, [sp, #15]	@ zero_extendqisi2
 501 0020 0095     		str	r5, [sp]
 502 0022 054B     		ldr	r3, .L31+8
 503 0024 0146     		mov	r1, r0
 504 0026 2046     		mov	r0, r4
 505              	.LVL69:
 506 0028 FFF7FEFF 		bl	u8g2_SetupBuffer
 507              	.LVL70:
  75:u8g2_lib/u8g2_d_setup.c **** }
 508              		.loc 1 75 0
 509 002c 05B0     		add	sp, sp, #20
 510              	.LCFI23:
ARM GAS  C:\Users\master\AppData\Local\Temp\ccmJvhxl.s 			page 11


 511              		.cfi_def_cfa_offset 12
 512              		@ sp needed
 513 002e 30BD     		pop	{r4, r5, pc}
 514              	.LVL71:
 515              	.L32:
 516              		.align	2
 517              	.L31:
 518 0030 00000000 		.word	u8x8_cad_ssd13xx_i2c
 519 0034 00000000 		.word	u8x8_d_ssd1305_128x32_adafruit
 520 0038 00000000 		.word	u8g2_ll_hvline_vertical_top_lsb
 521              		.cfi_endproc
 522              	.LFE7:
 524              		.section	.text.u8g2_Setup_ssd1305_i2c_128x32_noname_2,"ax",%progbits
 525              		.align	2
 526              		.global	u8g2_Setup_ssd1305_i2c_128x32_noname_2
 527              		.thumb
 528              		.thumb_func
 530              	u8g2_Setup_ssd1305_i2c_128x32_noname_2:
 531              	.LFB8:
  76:u8g2_lib/u8g2_d_setup.c **** /* ssd1305 2 */
  77:u8g2_lib/u8g2_d_setup.c **** void u8g2_Setup_ssd1305_i2c_128x32_noname_2(u8g2_t *u8g2, const u8g2_cb_t *rotation, u8x8_msg_cb by
  78:u8g2_lib/u8g2_d_setup.c **** {
 532              		.loc 1 78 0
 533              		.cfi_startproc
 534              		@ args = 0, pretend = 0, frame = 8
 535              		@ frame_needed = 0, uses_anonymous_args = 0
 536              	.LVL72:
 537 0000 30B5     		push	{r4, r5, lr}
 538              	.LCFI24:
 539              		.cfi_def_cfa_offset 12
 540              		.cfi_offset 4, -12
 541              		.cfi_offset 5, -8
 542              		.cfi_offset 14, -4
 543 0002 85B0     		sub	sp, sp, #20
 544              	.LCFI25:
 545              		.cfi_def_cfa_offset 32
 546 0004 0446     		mov	r4, r0
 547 0006 0D46     		mov	r5, r1
  79:u8g2_lib/u8g2_d_setup.c ****   uint8_t tile_buf_height;
  80:u8g2_lib/u8g2_d_setup.c ****   uint8_t *buf;
  81:u8g2_lib/u8g2_d_setup.c ****   u8g2_SetupDisplay(u8g2, u8x8_d_ssd1305_128x32_noname, u8x8_cad_ssd13xx_i2c, byte_cb, gpio_and_del
 548              		.loc 1 81 0
 549 0008 0093     		str	r3, [sp]
 550 000a 1346     		mov	r3, r2
 551              	.LVL73:
 552 000c 084A     		ldr	r2, .L35
 553              	.LVL74:
 554 000e 0949     		ldr	r1, .L35+4
 555              	.LVL75:
 556 0010 FFF7FEFF 		bl	u8x8_Setup
 557              	.LVL76:
  82:u8g2_lib/u8g2_d_setup.c ****   buf = u8g2_m_16_4_2(&tile_buf_height);
 558              		.loc 1 82 0
 559 0014 0DF10F00 		add	r0, sp, #15
 560 0018 FFF7FEFF 		bl	u8g2_m_16_4_2
 561              	.LVL77:
  83:u8g2_lib/u8g2_d_setup.c ****   u8g2_SetupBuffer(u8g2, buf, tile_buf_height, u8g2_ll_hvline_vertical_top_lsb, rotation);
ARM GAS  C:\Users\master\AppData\Local\Temp\ccmJvhxl.s 			page 12


 562              		.loc 1 83 0
 563 001c 9DF80F20 		ldrb	r2, [sp, #15]	@ zero_extendqisi2
 564 0020 0095     		str	r5, [sp]
 565 0022 054B     		ldr	r3, .L35+8
 566 0024 0146     		mov	r1, r0
 567 0026 2046     		mov	r0, r4
 568              	.LVL78:
 569 0028 FFF7FEFF 		bl	u8g2_SetupBuffer
 570              	.LVL79:
  84:u8g2_lib/u8g2_d_setup.c **** }
 571              		.loc 1 84 0
 572 002c 05B0     		add	sp, sp, #20
 573              	.LCFI26:
 574              		.cfi_def_cfa_offset 12
 575              		@ sp needed
 576 002e 30BD     		pop	{r4, r5, pc}
 577              	.LVL80:
 578              	.L36:
 579              		.align	2
 580              	.L35:
 581 0030 00000000 		.word	u8x8_cad_ssd13xx_i2c
 582 0034 00000000 		.word	u8x8_d_ssd1305_128x32_noname
 583 0038 00000000 		.word	u8g2_ll_hvline_vertical_top_lsb
 584              		.cfi_endproc
 585              	.LFE8:
 587              		.section	.text.u8g2_Setup_ssd1305_i2c_128x32_adafruit_2,"ax",%progbits
 588              		.align	2
 589              		.global	u8g2_Setup_ssd1305_i2c_128x32_adafruit_2
 590              		.thumb
 591              		.thumb_func
 593              	u8g2_Setup_ssd1305_i2c_128x32_adafruit_2:
 594              	.LFB9:
  85:u8g2_lib/u8g2_d_setup.c **** void u8g2_Setup_ssd1305_i2c_128x32_adafruit_2(u8g2_t *u8g2, const u8g2_cb_t *rotation, u8x8_msg_cb 
  86:u8g2_lib/u8g2_d_setup.c **** {
 595              		.loc 1 86 0
 596              		.cfi_startproc
 597              		@ args = 0, pretend = 0, frame = 8
 598              		@ frame_needed = 0, uses_anonymous_args = 0
 599              	.LVL81:
 600 0000 30B5     		push	{r4, r5, lr}
 601              	.LCFI27:
 602              		.cfi_def_cfa_offset 12
 603              		.cfi_offset 4, -12
 604              		.cfi_offset 5, -8
 605              		.cfi_offset 14, -4
 606 0002 85B0     		sub	sp, sp, #20
 607              	.LCFI28:
 608              		.cfi_def_cfa_offset 32
 609 0004 0446     		mov	r4, r0
 610 0006 0D46     		mov	r5, r1
  87:u8g2_lib/u8g2_d_setup.c ****   uint8_t tile_buf_height;
  88:u8g2_lib/u8g2_d_setup.c ****   uint8_t *buf;
  89:u8g2_lib/u8g2_d_setup.c ****   u8g2_SetupDisplay(u8g2, u8x8_d_ssd1305_128x32_adafruit, u8x8_cad_ssd13xx_i2c, byte_cb, gpio_and_d
 611              		.loc 1 89 0
 612 0008 0093     		str	r3, [sp]
 613 000a 1346     		mov	r3, r2
 614              	.LVL82:
ARM GAS  C:\Users\master\AppData\Local\Temp\ccmJvhxl.s 			page 13


 615 000c 084A     		ldr	r2, .L39
 616              	.LVL83:
 617 000e 0949     		ldr	r1, .L39+4
 618              	.LVL84:
 619 0010 FFF7FEFF 		bl	u8x8_Setup
 620              	.LVL85:
  90:u8g2_lib/u8g2_d_setup.c ****   buf = u8g2_m_16_4_2(&tile_buf_height);
 621              		.loc 1 90 0
 622 0014 0DF10F00 		add	r0, sp, #15
 623 0018 FFF7FEFF 		bl	u8g2_m_16_4_2
 624              	.LVL86:
  91:u8g2_lib/u8g2_d_setup.c ****   u8g2_SetupBuffer(u8g2, buf, tile_buf_height, u8g2_ll_hvline_vertical_top_lsb, rotation);
 625              		.loc 1 91 0
 626 001c 9DF80F20 		ldrb	r2, [sp, #15]	@ zero_extendqisi2
 627 0020 0095     		str	r5, [sp]
 628 0022 054B     		ldr	r3, .L39+8
 629 0024 0146     		mov	r1, r0
 630 0026 2046     		mov	r0, r4
 631              	.LVL87:
 632 0028 FFF7FEFF 		bl	u8g2_SetupBuffer
 633              	.LVL88:
  92:u8g2_lib/u8g2_d_setup.c **** }
 634              		.loc 1 92 0
 635 002c 05B0     		add	sp, sp, #20
 636              	.LCFI29:
 637              		.cfi_def_cfa_offset 12
 638              		@ sp needed
 639 002e 30BD     		pop	{r4, r5, pc}
 640              	.LVL89:
 641              	.L40:
 642              		.align	2
 643              	.L39:
 644 0030 00000000 		.word	u8x8_cad_ssd13xx_i2c
 645 0034 00000000 		.word	u8x8_d_ssd1305_128x32_adafruit
 646 0038 00000000 		.word	u8g2_ll_hvline_vertical_top_lsb
 647              		.cfi_endproc
 648              	.LFE9:
 650              		.section	.text.u8g2_Setup_ssd1305_i2c_128x32_noname_f,"ax",%progbits
 651              		.align	2
 652              		.global	u8g2_Setup_ssd1305_i2c_128x32_noname_f
 653              		.thumb
 654              		.thumb_func
 656              	u8g2_Setup_ssd1305_i2c_128x32_noname_f:
 657              	.LFB10:
  93:u8g2_lib/u8g2_d_setup.c **** /* ssd1305 f */
  94:u8g2_lib/u8g2_d_setup.c **** void u8g2_Setup_ssd1305_i2c_128x32_noname_f(u8g2_t *u8g2, const u8g2_cb_t *rotation, u8x8_msg_cb by
  95:u8g2_lib/u8g2_d_setup.c **** {
 658              		.loc 1 95 0
 659              		.cfi_startproc
 660              		@ args = 0, pretend = 0, frame = 8
 661              		@ frame_needed = 0, uses_anonymous_args = 0
 662              	.LVL90:
 663 0000 30B5     		push	{r4, r5, lr}
 664              	.LCFI30:
 665              		.cfi_def_cfa_offset 12
 666              		.cfi_offset 4, -12
 667              		.cfi_offset 5, -8
ARM GAS  C:\Users\master\AppData\Local\Temp\ccmJvhxl.s 			page 14


 668              		.cfi_offset 14, -4
 669 0002 85B0     		sub	sp, sp, #20
 670              	.LCFI31:
 671              		.cfi_def_cfa_offset 32
 672 0004 0446     		mov	r4, r0
 673 0006 0D46     		mov	r5, r1
  96:u8g2_lib/u8g2_d_setup.c ****   uint8_t tile_buf_height;
  97:u8g2_lib/u8g2_d_setup.c ****   uint8_t *buf;
  98:u8g2_lib/u8g2_d_setup.c ****   u8g2_SetupDisplay(u8g2, u8x8_d_ssd1305_128x32_noname, u8x8_cad_ssd13xx_i2c, byte_cb, gpio_and_del
 674              		.loc 1 98 0
 675 0008 0093     		str	r3, [sp]
 676 000a 1346     		mov	r3, r2
 677              	.LVL91:
 678 000c 084A     		ldr	r2, .L43
 679              	.LVL92:
 680 000e 0949     		ldr	r1, .L43+4
 681              	.LVL93:
 682 0010 FFF7FEFF 		bl	u8x8_Setup
 683              	.LVL94:
  99:u8g2_lib/u8g2_d_setup.c ****   buf = u8g2_m_16_4_f(&tile_buf_height);
 684              		.loc 1 99 0
 685 0014 0DF10F00 		add	r0, sp, #15
 686 0018 FFF7FEFF 		bl	u8g2_m_16_4_f
 687              	.LVL95:
 100:u8g2_lib/u8g2_d_setup.c ****   u8g2_SetupBuffer(u8g2, buf, tile_buf_height, u8g2_ll_hvline_vertical_top_lsb, rotation);
 688              		.loc 1 100 0
 689 001c 9DF80F20 		ldrb	r2, [sp, #15]	@ zero_extendqisi2
 690 0020 0095     		str	r5, [sp]
 691 0022 054B     		ldr	r3, .L43+8
 692 0024 0146     		mov	r1, r0
 693 0026 2046     		mov	r0, r4
 694              	.LVL96:
 695 0028 FFF7FEFF 		bl	u8g2_SetupBuffer
 696              	.LVL97:
 101:u8g2_lib/u8g2_d_setup.c **** }
 697              		.loc 1 101 0
 698 002c 05B0     		add	sp, sp, #20
 699              	.LCFI32:
 700              		.cfi_def_cfa_offset 12
 701              		@ sp needed
 702 002e 30BD     		pop	{r4, r5, pc}
 703              	.LVL98:
 704              	.L44:
 705              		.align	2
 706              	.L43:
 707 0030 00000000 		.word	u8x8_cad_ssd13xx_i2c
 708 0034 00000000 		.word	u8x8_d_ssd1305_128x32_noname
 709 0038 00000000 		.word	u8g2_ll_hvline_vertical_top_lsb
 710              		.cfi_endproc
 711              	.LFE10:
 713              		.section	.text.u8g2_Setup_ssd1305_i2c_128x32_adafruit_f,"ax",%progbits
 714              		.align	2
 715              		.global	u8g2_Setup_ssd1305_i2c_128x32_adafruit_f
 716              		.thumb
 717              		.thumb_func
 719              	u8g2_Setup_ssd1305_i2c_128x32_adafruit_f:
 720              	.LFB11:
ARM GAS  C:\Users\master\AppData\Local\Temp\ccmJvhxl.s 			page 15


 102:u8g2_lib/u8g2_d_setup.c **** void u8g2_Setup_ssd1305_i2c_128x32_adafruit_f(u8g2_t *u8g2, const u8g2_cb_t *rotation, u8x8_msg_cb 
 103:u8g2_lib/u8g2_d_setup.c **** {
 721              		.loc 1 103 0
 722              		.cfi_startproc
 723              		@ args = 0, pretend = 0, frame = 8
 724              		@ frame_needed = 0, uses_anonymous_args = 0
 725              	.LVL99:
 726 0000 30B5     		push	{r4, r5, lr}
 727              	.LCFI33:
 728              		.cfi_def_cfa_offset 12
 729              		.cfi_offset 4, -12
 730              		.cfi_offset 5, -8
 731              		.cfi_offset 14, -4
 732 0002 85B0     		sub	sp, sp, #20
 733              	.LCFI34:
 734              		.cfi_def_cfa_offset 32
 735 0004 0446     		mov	r4, r0
 736 0006 0D46     		mov	r5, r1
 104:u8g2_lib/u8g2_d_setup.c ****   uint8_t tile_buf_height;
 105:u8g2_lib/u8g2_d_setup.c ****   uint8_t *buf;
 106:u8g2_lib/u8g2_d_setup.c ****   u8g2_SetupDisplay(u8g2, u8x8_d_ssd1305_128x32_adafruit, u8x8_cad_ssd13xx_i2c, byte_cb, gpio_and_d
 737              		.loc 1 106 0
 738 0008 0093     		str	r3, [sp]
 739 000a 1346     		mov	r3, r2
 740              	.LVL100:
 741 000c 084A     		ldr	r2, .L47
 742              	.LVL101:
 743 000e 0949     		ldr	r1, .L47+4
 744              	.LVL102:
 745 0010 FFF7FEFF 		bl	u8x8_Setup
 746              	.LVL103:
 107:u8g2_lib/u8g2_d_setup.c ****   buf = u8g2_m_16_4_f(&tile_buf_height);
 747              		.loc 1 107 0
 748 0014 0DF10F00 		add	r0, sp, #15
 749 0018 FFF7FEFF 		bl	u8g2_m_16_4_f
 750              	.LVL104:
 108:u8g2_lib/u8g2_d_setup.c ****   u8g2_SetupBuffer(u8g2, buf, tile_buf_height, u8g2_ll_hvline_vertical_top_lsb, rotation);
 751              		.loc 1 108 0
 752 001c 9DF80F20 		ldrb	r2, [sp, #15]	@ zero_extendqisi2
 753 0020 0095     		str	r5, [sp]
 754 0022 054B     		ldr	r3, .L47+8
 755 0024 0146     		mov	r1, r0
 756 0026 2046     		mov	r0, r4
 757              	.LVL105:
 758 0028 FFF7FEFF 		bl	u8g2_SetupBuffer
 759              	.LVL106:
 109:u8g2_lib/u8g2_d_setup.c **** }
 760              		.loc 1 109 0
 761 002c 05B0     		add	sp, sp, #20
 762              	.LCFI35:
 763              		.cfi_def_cfa_offset 12
 764              		@ sp needed
 765 002e 30BD     		pop	{r4, r5, pc}
 766              	.LVL107:
 767              	.L48:
 768              		.align	2
 769              	.L47:
ARM GAS  C:\Users\master\AppData\Local\Temp\ccmJvhxl.s 			page 16


 770 0030 00000000 		.word	u8x8_cad_ssd13xx_i2c
 771 0034 00000000 		.word	u8x8_d_ssd1305_128x32_adafruit
 772 0038 00000000 		.word	u8g2_ll_hvline_vertical_top_lsb
 773              		.cfi_endproc
 774              	.LFE11:
 776              		.section	.text.u8g2_Setup_ssd1305_128x64_adafruit_1,"ax",%progbits
 777              		.align	2
 778              		.global	u8g2_Setup_ssd1305_128x64_adafruit_1
 779              		.thumb
 780              		.thumb_func
 782              	u8g2_Setup_ssd1305_128x64_adafruit_1:
 783              	.LFB12:
 110:u8g2_lib/u8g2_d_setup.c **** /* ssd1305 */
 111:u8g2_lib/u8g2_d_setup.c **** /* ssd1305 1 */
 112:u8g2_lib/u8g2_d_setup.c **** void u8g2_Setup_ssd1305_128x64_adafruit_1(u8g2_t *u8g2, const u8g2_cb_t *rotation, u8x8_msg_cb byte
 113:u8g2_lib/u8g2_d_setup.c **** {
 784              		.loc 1 113 0
 785              		.cfi_startproc
 786              		@ args = 0, pretend = 0, frame = 8
 787              		@ frame_needed = 0, uses_anonymous_args = 0
 788              	.LVL108:
 789 0000 30B5     		push	{r4, r5, lr}
 790              	.LCFI36:
 791              		.cfi_def_cfa_offset 12
 792              		.cfi_offset 4, -12
 793              		.cfi_offset 5, -8
 794              		.cfi_offset 14, -4
 795 0002 85B0     		sub	sp, sp, #20
 796              	.LCFI37:
 797              		.cfi_def_cfa_offset 32
 798 0004 0446     		mov	r4, r0
 799 0006 0D46     		mov	r5, r1
 114:u8g2_lib/u8g2_d_setup.c ****   uint8_t tile_buf_height;
 115:u8g2_lib/u8g2_d_setup.c ****   uint8_t *buf;
 116:u8g2_lib/u8g2_d_setup.c ****   u8g2_SetupDisplay(u8g2, u8x8_d_ssd1305_128x64_adafruit, u8x8_cad_001, byte_cb, gpio_and_delay_cb)
 800              		.loc 1 116 0
 801 0008 0093     		str	r3, [sp]
 802 000a 1346     		mov	r3, r2
 803              	.LVL109:
 804 000c 084A     		ldr	r2, .L51
 805              	.LVL110:
 806 000e 0949     		ldr	r1, .L51+4
 807              	.LVL111:
 808 0010 FFF7FEFF 		bl	u8x8_Setup
 809              	.LVL112:
 117:u8g2_lib/u8g2_d_setup.c ****   buf = u8g2_m_16_8_1(&tile_buf_height);
 810              		.loc 1 117 0
 811 0014 0DF10F00 		add	r0, sp, #15
 812 0018 FFF7FEFF 		bl	u8g2_m_16_8_1
 813              	.LVL113:
 118:u8g2_lib/u8g2_d_setup.c ****   u8g2_SetupBuffer(u8g2, buf, tile_buf_height, u8g2_ll_hvline_vertical_top_lsb, rotation);
 814              		.loc 1 118 0
 815 001c 9DF80F20 		ldrb	r2, [sp, #15]	@ zero_extendqisi2
 816 0020 0095     		str	r5, [sp]
 817 0022 054B     		ldr	r3, .L51+8
 818 0024 0146     		mov	r1, r0
 819 0026 2046     		mov	r0, r4
ARM GAS  C:\Users\master\AppData\Local\Temp\ccmJvhxl.s 			page 17


 820              	.LVL114:
 821 0028 FFF7FEFF 		bl	u8g2_SetupBuffer
 822              	.LVL115:
 119:u8g2_lib/u8g2_d_setup.c **** }
 823              		.loc 1 119 0
 824 002c 05B0     		add	sp, sp, #20
 825              	.LCFI38:
 826              		.cfi_def_cfa_offset 12
 827              		@ sp needed
 828 002e 30BD     		pop	{r4, r5, pc}
 829              	.LVL116:
 830              	.L52:
 831              		.align	2
 832              	.L51:
 833 0030 00000000 		.word	u8x8_cad_001
 834 0034 00000000 		.word	u8x8_d_ssd1305_128x64_adafruit
 835 0038 00000000 		.word	u8g2_ll_hvline_vertical_top_lsb
 836              		.cfi_endproc
 837              	.LFE12:
 839              		.section	.text.u8g2_Setup_ssd1305_128x64_raystar_1,"ax",%progbits
 840              		.align	2
 841              		.global	u8g2_Setup_ssd1305_128x64_raystar_1
 842              		.thumb
 843              		.thumb_func
 845              	u8g2_Setup_ssd1305_128x64_raystar_1:
 846              	.LFB13:
 120:u8g2_lib/u8g2_d_setup.c **** void u8g2_Setup_ssd1305_128x64_raystar_1(u8g2_t *u8g2, const u8g2_cb_t *rotation, u8x8_msg_cb byte_
 121:u8g2_lib/u8g2_d_setup.c **** {
 847              		.loc 1 121 0
 848              		.cfi_startproc
 849              		@ args = 0, pretend = 0, frame = 8
 850              		@ frame_needed = 0, uses_anonymous_args = 0
 851              	.LVL117:
 852 0000 30B5     		push	{r4, r5, lr}
 853              	.LCFI39:
 854              		.cfi_def_cfa_offset 12
 855              		.cfi_offset 4, -12
 856              		.cfi_offset 5, -8
 857              		.cfi_offset 14, -4
 858 0002 85B0     		sub	sp, sp, #20
 859              	.LCFI40:
 860              		.cfi_def_cfa_offset 32
 861 0004 0446     		mov	r4, r0
 862 0006 0D46     		mov	r5, r1
 122:u8g2_lib/u8g2_d_setup.c ****   uint8_t tile_buf_height;
 123:u8g2_lib/u8g2_d_setup.c ****   uint8_t *buf;
 124:u8g2_lib/u8g2_d_setup.c ****   u8g2_SetupDisplay(u8g2, u8x8_d_ssd1305_128x64_raystar, u8x8_cad_001, byte_cb, gpio_and_delay_cb);
 863              		.loc 1 124 0
 864 0008 0093     		str	r3, [sp]
 865 000a 1346     		mov	r3, r2
 866              	.LVL118:
 867 000c 084A     		ldr	r2, .L55
 868              	.LVL119:
 869 000e 0949     		ldr	r1, .L55+4
 870              	.LVL120:
 871 0010 FFF7FEFF 		bl	u8x8_Setup
 872              	.LVL121:
ARM GAS  C:\Users\master\AppData\Local\Temp\ccmJvhxl.s 			page 18


 125:u8g2_lib/u8g2_d_setup.c ****   buf = u8g2_m_16_8_1(&tile_buf_height);
 873              		.loc 1 125 0
 874 0014 0DF10F00 		add	r0, sp, #15
 875 0018 FFF7FEFF 		bl	u8g2_m_16_8_1
 876              	.LVL122:
 126:u8g2_lib/u8g2_d_setup.c ****   u8g2_SetupBuffer(u8g2, buf, tile_buf_height, u8g2_ll_hvline_vertical_top_lsb, rotation);
 877              		.loc 1 126 0
 878 001c 9DF80F20 		ldrb	r2, [sp, #15]	@ zero_extendqisi2
 879 0020 0095     		str	r5, [sp]
 880 0022 054B     		ldr	r3, .L55+8
 881 0024 0146     		mov	r1, r0
 882 0026 2046     		mov	r0, r4
 883              	.LVL123:
 884 0028 FFF7FEFF 		bl	u8g2_SetupBuffer
 885              	.LVL124:
 127:u8g2_lib/u8g2_d_setup.c **** }
 886              		.loc 1 127 0
 887 002c 05B0     		add	sp, sp, #20
 888              	.LCFI41:
 889              		.cfi_def_cfa_offset 12
 890              		@ sp needed
 891 002e 30BD     		pop	{r4, r5, pc}
 892              	.LVL125:
 893              	.L56:
 894              		.align	2
 895              	.L55:
 896 0030 00000000 		.word	u8x8_cad_001
 897 0034 00000000 		.word	u8x8_d_ssd1305_128x64_raystar
 898 0038 00000000 		.word	u8g2_ll_hvline_vertical_top_lsb
 899              		.cfi_endproc
 900              	.LFE13:
 902              		.section	.text.u8g2_Setup_ssd1305_128x64_adafruit_2,"ax",%progbits
 903              		.align	2
 904              		.global	u8g2_Setup_ssd1305_128x64_adafruit_2
 905              		.thumb
 906              		.thumb_func
 908              	u8g2_Setup_ssd1305_128x64_adafruit_2:
 909              	.LFB14:
 128:u8g2_lib/u8g2_d_setup.c **** /* ssd1305 2 */
 129:u8g2_lib/u8g2_d_setup.c **** void u8g2_Setup_ssd1305_128x64_adafruit_2(u8g2_t *u8g2, const u8g2_cb_t *rotation, u8x8_msg_cb byte
 130:u8g2_lib/u8g2_d_setup.c **** {
 910              		.loc 1 130 0
 911              		.cfi_startproc
 912              		@ args = 0, pretend = 0, frame = 8
 913              		@ frame_needed = 0, uses_anonymous_args = 0
 914              	.LVL126:
 915 0000 30B5     		push	{r4, r5, lr}
 916              	.LCFI42:
 917              		.cfi_def_cfa_offset 12
 918              		.cfi_offset 4, -12
 919              		.cfi_offset 5, -8
 920              		.cfi_offset 14, -4
 921 0002 85B0     		sub	sp, sp, #20
 922              	.LCFI43:
 923              		.cfi_def_cfa_offset 32
 924 0004 0446     		mov	r4, r0
 925 0006 0D46     		mov	r5, r1
ARM GAS  C:\Users\master\AppData\Local\Temp\ccmJvhxl.s 			page 19


 131:u8g2_lib/u8g2_d_setup.c ****   uint8_t tile_buf_height;
 132:u8g2_lib/u8g2_d_setup.c ****   uint8_t *buf;
 133:u8g2_lib/u8g2_d_setup.c ****   u8g2_SetupDisplay(u8g2, u8x8_d_ssd1305_128x64_adafruit, u8x8_cad_001, byte_cb, gpio_and_delay_cb)
 926              		.loc 1 133 0
 927 0008 0093     		str	r3, [sp]
 928 000a 1346     		mov	r3, r2
 929              	.LVL127:
 930 000c 084A     		ldr	r2, .L59
 931              	.LVL128:
 932 000e 0949     		ldr	r1, .L59+4
 933              	.LVL129:
 934 0010 FFF7FEFF 		bl	u8x8_Setup
 935              	.LVL130:
 134:u8g2_lib/u8g2_d_setup.c ****   buf = u8g2_m_16_8_2(&tile_buf_height);
 936              		.loc 1 134 0
 937 0014 0DF10F00 		add	r0, sp, #15
 938 0018 FFF7FEFF 		bl	u8g2_m_16_8_2
 939              	.LVL131:
 135:u8g2_lib/u8g2_d_setup.c ****   u8g2_SetupBuffer(u8g2, buf, tile_buf_height, u8g2_ll_hvline_vertical_top_lsb, rotation);
 940              		.loc 1 135 0
 941 001c 9DF80F20 		ldrb	r2, [sp, #15]	@ zero_extendqisi2
 942 0020 0095     		str	r5, [sp]
 943 0022 054B     		ldr	r3, .L59+8
 944 0024 0146     		mov	r1, r0
 945 0026 2046     		mov	r0, r4
 946              	.LVL132:
 947 0028 FFF7FEFF 		bl	u8g2_SetupBuffer
 948              	.LVL133:
 136:u8g2_lib/u8g2_d_setup.c **** }
 949              		.loc 1 136 0
 950 002c 05B0     		add	sp, sp, #20
 951              	.LCFI44:
 952              		.cfi_def_cfa_offset 12
 953              		@ sp needed
 954 002e 30BD     		pop	{r4, r5, pc}
 955              	.LVL134:
 956              	.L60:
 957              		.align	2
 958              	.L59:
 959 0030 00000000 		.word	u8x8_cad_001
 960 0034 00000000 		.word	u8x8_d_ssd1305_128x64_adafruit
 961 0038 00000000 		.word	u8g2_ll_hvline_vertical_top_lsb
 962              		.cfi_endproc
 963              	.LFE14:
 965              		.section	.text.u8g2_Setup_ssd1305_128x64_raystar_2,"ax",%progbits
 966              		.align	2
 967              		.global	u8g2_Setup_ssd1305_128x64_raystar_2
 968              		.thumb
 969              		.thumb_func
 971              	u8g2_Setup_ssd1305_128x64_raystar_2:
 972              	.LFB15:
 137:u8g2_lib/u8g2_d_setup.c **** void u8g2_Setup_ssd1305_128x64_raystar_2(u8g2_t *u8g2, const u8g2_cb_t *rotation, u8x8_msg_cb byte_
 138:u8g2_lib/u8g2_d_setup.c **** {
 973              		.loc 1 138 0
 974              		.cfi_startproc
 975              		@ args = 0, pretend = 0, frame = 8
 976              		@ frame_needed = 0, uses_anonymous_args = 0
ARM GAS  C:\Users\master\AppData\Local\Temp\ccmJvhxl.s 			page 20


 977              	.LVL135:
 978 0000 30B5     		push	{r4, r5, lr}
 979              	.LCFI45:
 980              		.cfi_def_cfa_offset 12
 981              		.cfi_offset 4, -12
 982              		.cfi_offset 5, -8
 983              		.cfi_offset 14, -4
 984 0002 85B0     		sub	sp, sp, #20
 985              	.LCFI46:
 986              		.cfi_def_cfa_offset 32
 987 0004 0446     		mov	r4, r0
 988 0006 0D46     		mov	r5, r1
 139:u8g2_lib/u8g2_d_setup.c ****   uint8_t tile_buf_height;
 140:u8g2_lib/u8g2_d_setup.c ****   uint8_t *buf;
 141:u8g2_lib/u8g2_d_setup.c ****   u8g2_SetupDisplay(u8g2, u8x8_d_ssd1305_128x64_raystar, u8x8_cad_001, byte_cb, gpio_and_delay_cb);
 989              		.loc 1 141 0
 990 0008 0093     		str	r3, [sp]
 991 000a 1346     		mov	r3, r2
 992              	.LVL136:
 993 000c 084A     		ldr	r2, .L63
 994              	.LVL137:
 995 000e 0949     		ldr	r1, .L63+4
 996              	.LVL138:
 997 0010 FFF7FEFF 		bl	u8x8_Setup
 998              	.LVL139:
 142:u8g2_lib/u8g2_d_setup.c ****   buf = u8g2_m_16_8_2(&tile_buf_height);
 999              		.loc 1 142 0
 1000 0014 0DF10F00 		add	r0, sp, #15
 1001 0018 FFF7FEFF 		bl	u8g2_m_16_8_2
 1002              	.LVL140:
 143:u8g2_lib/u8g2_d_setup.c ****   u8g2_SetupBuffer(u8g2, buf, tile_buf_height, u8g2_ll_hvline_vertical_top_lsb, rotation);
 1003              		.loc 1 143 0
 1004 001c 9DF80F20 		ldrb	r2, [sp, #15]	@ zero_extendqisi2
 1005 0020 0095     		str	r5, [sp]
 1006 0022 054B     		ldr	r3, .L63+8
 1007 0024 0146     		mov	r1, r0
 1008 0026 2046     		mov	r0, r4
 1009              	.LVL141:
 1010 0028 FFF7FEFF 		bl	u8g2_SetupBuffer
 1011              	.LVL142:
 144:u8g2_lib/u8g2_d_setup.c **** }
 1012              		.loc 1 144 0
 1013 002c 05B0     		add	sp, sp, #20
 1014              	.LCFI47:
 1015              		.cfi_def_cfa_offset 12
 1016              		@ sp needed
 1017 002e 30BD     		pop	{r4, r5, pc}
 1018              	.LVL143:
 1019              	.L64:
 1020              		.align	2
 1021              	.L63:
 1022 0030 00000000 		.word	u8x8_cad_001
 1023 0034 00000000 		.word	u8x8_d_ssd1305_128x64_raystar
 1024 0038 00000000 		.word	u8g2_ll_hvline_vertical_top_lsb
 1025              		.cfi_endproc
 1026              	.LFE15:
 1028              		.section	.text.u8g2_Setup_ssd1305_128x64_adafruit_f,"ax",%progbits
ARM GAS  C:\Users\master\AppData\Local\Temp\ccmJvhxl.s 			page 21


 1029              		.align	2
 1030              		.global	u8g2_Setup_ssd1305_128x64_adafruit_f
 1031              		.thumb
 1032              		.thumb_func
 1034              	u8g2_Setup_ssd1305_128x64_adafruit_f:
 1035              	.LFB16:
 145:u8g2_lib/u8g2_d_setup.c **** /* ssd1305 f */
 146:u8g2_lib/u8g2_d_setup.c **** void u8g2_Setup_ssd1305_128x64_adafruit_f(u8g2_t *u8g2, const u8g2_cb_t *rotation, u8x8_msg_cb byte
 147:u8g2_lib/u8g2_d_setup.c **** {
 1036              		.loc 1 147 0
 1037              		.cfi_startproc
 1038              		@ args = 0, pretend = 0, frame = 8
 1039              		@ frame_needed = 0, uses_anonymous_args = 0
 1040              	.LVL144:
 1041 0000 30B5     		push	{r4, r5, lr}
 1042              	.LCFI48:
 1043              		.cfi_def_cfa_offset 12
 1044              		.cfi_offset 4, -12
 1045              		.cfi_offset 5, -8
 1046              		.cfi_offset 14, -4
 1047 0002 85B0     		sub	sp, sp, #20
 1048              	.LCFI49:
 1049              		.cfi_def_cfa_offset 32
 1050 0004 0446     		mov	r4, r0
 1051 0006 0D46     		mov	r5, r1
 148:u8g2_lib/u8g2_d_setup.c ****   uint8_t tile_buf_height;
 149:u8g2_lib/u8g2_d_setup.c ****   uint8_t *buf;
 150:u8g2_lib/u8g2_d_setup.c ****   u8g2_SetupDisplay(u8g2, u8x8_d_ssd1305_128x64_adafruit, u8x8_cad_001, byte_cb, gpio_and_delay_cb)
 1052              		.loc 1 150 0
 1053 0008 0093     		str	r3, [sp]
 1054 000a 1346     		mov	r3, r2
 1055              	.LVL145:
 1056 000c 084A     		ldr	r2, .L67
 1057              	.LVL146:
 1058 000e 0949     		ldr	r1, .L67+4
 1059              	.LVL147:
 1060 0010 FFF7FEFF 		bl	u8x8_Setup
 1061              	.LVL148:
 151:u8g2_lib/u8g2_d_setup.c ****   buf = u8g2_m_16_8_f(&tile_buf_height);
 1062              		.loc 1 151 0
 1063 0014 0DF10F00 		add	r0, sp, #15
 1064 0018 FFF7FEFF 		bl	u8g2_m_16_8_f
 1065              	.LVL149:
 152:u8g2_lib/u8g2_d_setup.c ****   u8g2_SetupBuffer(u8g2, buf, tile_buf_height, u8g2_ll_hvline_vertical_top_lsb, rotation);
 1066              		.loc 1 152 0
 1067 001c 9DF80F20 		ldrb	r2, [sp, #15]	@ zero_extendqisi2
 1068 0020 0095     		str	r5, [sp]
 1069 0022 054B     		ldr	r3, .L67+8
 1070 0024 0146     		mov	r1, r0
 1071 0026 2046     		mov	r0, r4
 1072              	.LVL150:
 1073 0028 FFF7FEFF 		bl	u8g2_SetupBuffer
 1074              	.LVL151:
 153:u8g2_lib/u8g2_d_setup.c **** }
 1075              		.loc 1 153 0
 1076 002c 05B0     		add	sp, sp, #20
 1077              	.LCFI50:
ARM GAS  C:\Users\master\AppData\Local\Temp\ccmJvhxl.s 			page 22


 1078              		.cfi_def_cfa_offset 12
 1079              		@ sp needed
 1080 002e 30BD     		pop	{r4, r5, pc}
 1081              	.LVL152:
 1082              	.L68:
 1083              		.align	2
 1084              	.L67:
 1085 0030 00000000 		.word	u8x8_cad_001
 1086 0034 00000000 		.word	u8x8_d_ssd1305_128x64_adafruit
 1087 0038 00000000 		.word	u8g2_ll_hvline_vertical_top_lsb
 1088              		.cfi_endproc
 1089              	.LFE16:
 1091              		.section	.text.u8g2_Setup_ssd1305_128x64_raystar_f,"ax",%progbits
 1092              		.align	2
 1093              		.global	u8g2_Setup_ssd1305_128x64_raystar_f
 1094              		.thumb
 1095              		.thumb_func
 1097              	u8g2_Setup_ssd1305_128x64_raystar_f:
 1098              	.LFB17:
 154:u8g2_lib/u8g2_d_setup.c **** void u8g2_Setup_ssd1305_128x64_raystar_f(u8g2_t *u8g2, const u8g2_cb_t *rotation, u8x8_msg_cb byte_
 155:u8g2_lib/u8g2_d_setup.c **** {
 1099              		.loc 1 155 0
 1100              		.cfi_startproc
 1101              		@ args = 0, pretend = 0, frame = 8
 1102              		@ frame_needed = 0, uses_anonymous_args = 0
 1103              	.LVL153:
 1104 0000 30B5     		push	{r4, r5, lr}
 1105              	.LCFI51:
 1106              		.cfi_def_cfa_offset 12
 1107              		.cfi_offset 4, -12
 1108              		.cfi_offset 5, -8
 1109              		.cfi_offset 14, -4
 1110 0002 85B0     		sub	sp, sp, #20
 1111              	.LCFI52:
 1112              		.cfi_def_cfa_offset 32
 1113 0004 0446     		mov	r4, r0
 1114 0006 0D46     		mov	r5, r1
 156:u8g2_lib/u8g2_d_setup.c ****   uint8_t tile_buf_height;
 157:u8g2_lib/u8g2_d_setup.c ****   uint8_t *buf;
 158:u8g2_lib/u8g2_d_setup.c ****   u8g2_SetupDisplay(u8g2, u8x8_d_ssd1305_128x64_raystar, u8x8_cad_001, byte_cb, gpio_and_delay_cb);
 1115              		.loc 1 158 0
 1116 0008 0093     		str	r3, [sp]
 1117 000a 1346     		mov	r3, r2
 1118              	.LVL154:
 1119 000c 084A     		ldr	r2, .L71
 1120              	.LVL155:
 1121 000e 0949     		ldr	r1, .L71+4
 1122              	.LVL156:
 1123 0010 FFF7FEFF 		bl	u8x8_Setup
 1124              	.LVL157:
 159:u8g2_lib/u8g2_d_setup.c ****   buf = u8g2_m_16_8_f(&tile_buf_height);
 1125              		.loc 1 159 0
 1126 0014 0DF10F00 		add	r0, sp, #15
 1127 0018 FFF7FEFF 		bl	u8g2_m_16_8_f
 1128              	.LVL158:
 160:u8g2_lib/u8g2_d_setup.c ****   u8g2_SetupBuffer(u8g2, buf, tile_buf_height, u8g2_ll_hvline_vertical_top_lsb, rotation);
 1129              		.loc 1 160 0
ARM GAS  C:\Users\master\AppData\Local\Temp\ccmJvhxl.s 			page 23


 1130 001c 9DF80F20 		ldrb	r2, [sp, #15]	@ zero_extendqisi2
 1131 0020 0095     		str	r5, [sp]
 1132 0022 054B     		ldr	r3, .L71+8
 1133 0024 0146     		mov	r1, r0
 1134 0026 2046     		mov	r0, r4
 1135              	.LVL159:
 1136 0028 FFF7FEFF 		bl	u8g2_SetupBuffer
 1137              	.LVL160:
 161:u8g2_lib/u8g2_d_setup.c **** }
 1138              		.loc 1 161 0
 1139 002c 05B0     		add	sp, sp, #20
 1140              	.LCFI53:
 1141              		.cfi_def_cfa_offset 12
 1142              		@ sp needed
 1143 002e 30BD     		pop	{r4, r5, pc}
 1144              	.LVL161:
 1145              	.L72:
 1146              		.align	2
 1147              	.L71:
 1148 0030 00000000 		.word	u8x8_cad_001
 1149 0034 00000000 		.word	u8x8_d_ssd1305_128x64_raystar
 1150 0038 00000000 		.word	u8g2_ll_hvline_vertical_top_lsb
 1151              		.cfi_endproc
 1152              	.LFE17:
 1154              		.section	.text.u8g2_Setup_ssd1305_i2c_128x64_adafruit_1,"ax",%progbits
 1155              		.align	2
 1156              		.global	u8g2_Setup_ssd1305_i2c_128x64_adafruit_1
 1157              		.thumb
 1158              		.thumb_func
 1160              	u8g2_Setup_ssd1305_i2c_128x64_adafruit_1:
 1161              	.LFB18:
 162:u8g2_lib/u8g2_d_setup.c **** /* ssd1305 */
 163:u8g2_lib/u8g2_d_setup.c **** /* ssd1305 1 */
 164:u8g2_lib/u8g2_d_setup.c **** void u8g2_Setup_ssd1305_i2c_128x64_adafruit_1(u8g2_t *u8g2, const u8g2_cb_t *rotation, u8x8_msg_cb 
 165:u8g2_lib/u8g2_d_setup.c **** {
 1162              		.loc 1 165 0
 1163              		.cfi_startproc
 1164              		@ args = 0, pretend = 0, frame = 8
 1165              		@ frame_needed = 0, uses_anonymous_args = 0
 1166              	.LVL162:
 1167 0000 30B5     		push	{r4, r5, lr}
 1168              	.LCFI54:
 1169              		.cfi_def_cfa_offset 12
 1170              		.cfi_offset 4, -12
 1171              		.cfi_offset 5, -8
 1172              		.cfi_offset 14, -4
 1173 0002 85B0     		sub	sp, sp, #20
 1174              	.LCFI55:
 1175              		.cfi_def_cfa_offset 32
 1176 0004 0446     		mov	r4, r0
 1177 0006 0D46     		mov	r5, r1
 166:u8g2_lib/u8g2_d_setup.c ****   uint8_t tile_buf_height;
 167:u8g2_lib/u8g2_d_setup.c ****   uint8_t *buf;
 168:u8g2_lib/u8g2_d_setup.c ****   u8g2_SetupDisplay(u8g2, u8x8_d_ssd1305_128x64_adafruit, u8x8_cad_ssd13xx_i2c, byte_cb, gpio_and_d
 1178              		.loc 1 168 0
 1179 0008 0093     		str	r3, [sp]
 1180 000a 1346     		mov	r3, r2
ARM GAS  C:\Users\master\AppData\Local\Temp\ccmJvhxl.s 			page 24


 1181              	.LVL163:
 1182 000c 084A     		ldr	r2, .L75
 1183              	.LVL164:
 1184 000e 0949     		ldr	r1, .L75+4
 1185              	.LVL165:
 1186 0010 FFF7FEFF 		bl	u8x8_Setup
 1187              	.LVL166:
 169:u8g2_lib/u8g2_d_setup.c ****   buf = u8g2_m_16_8_1(&tile_buf_height);
 1188              		.loc 1 169 0
 1189 0014 0DF10F00 		add	r0, sp, #15
 1190 0018 FFF7FEFF 		bl	u8g2_m_16_8_1
 1191              	.LVL167:
 170:u8g2_lib/u8g2_d_setup.c ****   u8g2_SetupBuffer(u8g2, buf, tile_buf_height, u8g2_ll_hvline_vertical_top_lsb, rotation);
 1192              		.loc 1 170 0
 1193 001c 9DF80F20 		ldrb	r2, [sp, #15]	@ zero_extendqisi2
 1194 0020 0095     		str	r5, [sp]
 1195 0022 054B     		ldr	r3, .L75+8
 1196 0024 0146     		mov	r1, r0
 1197 0026 2046     		mov	r0, r4
 1198              	.LVL168:
 1199 0028 FFF7FEFF 		bl	u8g2_SetupBuffer
 1200              	.LVL169:
 171:u8g2_lib/u8g2_d_setup.c **** }
 1201              		.loc 1 171 0
 1202 002c 05B0     		add	sp, sp, #20
 1203              	.LCFI56:
 1204              		.cfi_def_cfa_offset 12
 1205              		@ sp needed
 1206 002e 30BD     		pop	{r4, r5, pc}
 1207              	.LVL170:
 1208              	.L76:
 1209              		.align	2
 1210              	.L75:
 1211 0030 00000000 		.word	u8x8_cad_ssd13xx_i2c
 1212 0034 00000000 		.word	u8x8_d_ssd1305_128x64_adafruit
 1213 0038 00000000 		.word	u8g2_ll_hvline_vertical_top_lsb
 1214              		.cfi_endproc
 1215              	.LFE18:
 1217              		.section	.text.u8g2_Setup_ssd1305_i2c_128x64_raystar_1,"ax",%progbits
 1218              		.align	2
 1219              		.global	u8g2_Setup_ssd1305_i2c_128x64_raystar_1
 1220              		.thumb
 1221              		.thumb_func
 1223              	u8g2_Setup_ssd1305_i2c_128x64_raystar_1:
 1224              	.LFB19:
 172:u8g2_lib/u8g2_d_setup.c **** void u8g2_Setup_ssd1305_i2c_128x64_raystar_1(u8g2_t *u8g2, const u8g2_cb_t *rotation, u8x8_msg_cb b
 173:u8g2_lib/u8g2_d_setup.c **** {
 1225              		.loc 1 173 0
 1226              		.cfi_startproc
 1227              		@ args = 0, pretend = 0, frame = 8
 1228              		@ frame_needed = 0, uses_anonymous_args = 0
 1229              	.LVL171:
 1230 0000 30B5     		push	{r4, r5, lr}
 1231              	.LCFI57:
 1232              		.cfi_def_cfa_offset 12
 1233              		.cfi_offset 4, -12
 1234              		.cfi_offset 5, -8
ARM GAS  C:\Users\master\AppData\Local\Temp\ccmJvhxl.s 			page 25


 1235              		.cfi_offset 14, -4
 1236 0002 85B0     		sub	sp, sp, #20
 1237              	.LCFI58:
 1238              		.cfi_def_cfa_offset 32
 1239 0004 0446     		mov	r4, r0
 1240 0006 0D46     		mov	r5, r1
 174:u8g2_lib/u8g2_d_setup.c ****   uint8_t tile_buf_height;
 175:u8g2_lib/u8g2_d_setup.c ****   uint8_t *buf;
 176:u8g2_lib/u8g2_d_setup.c ****   u8g2_SetupDisplay(u8g2, u8x8_d_ssd1305_128x64_raystar, u8x8_cad_ssd13xx_i2c, byte_cb, gpio_and_de
 1241              		.loc 1 176 0
 1242 0008 0093     		str	r3, [sp]
 1243 000a 1346     		mov	r3, r2
 1244              	.LVL172:
 1245 000c 084A     		ldr	r2, .L79
 1246              	.LVL173:
 1247 000e 0949     		ldr	r1, .L79+4
 1248              	.LVL174:
 1249 0010 FFF7FEFF 		bl	u8x8_Setup
 1250              	.LVL175:
 177:u8g2_lib/u8g2_d_setup.c ****   buf = u8g2_m_16_8_1(&tile_buf_height);
 1251              		.loc 1 177 0
 1252 0014 0DF10F00 		add	r0, sp, #15
 1253 0018 FFF7FEFF 		bl	u8g2_m_16_8_1
 1254              	.LVL176:
 178:u8g2_lib/u8g2_d_setup.c ****   u8g2_SetupBuffer(u8g2, buf, tile_buf_height, u8g2_ll_hvline_vertical_top_lsb, rotation);
 1255              		.loc 1 178 0
 1256 001c 9DF80F20 		ldrb	r2, [sp, #15]	@ zero_extendqisi2
 1257 0020 0095     		str	r5, [sp]
 1258 0022 054B     		ldr	r3, .L79+8
 1259 0024 0146     		mov	r1, r0
 1260 0026 2046     		mov	r0, r4
 1261              	.LVL177:
 1262 0028 FFF7FEFF 		bl	u8g2_SetupBuffer
 1263              	.LVL178:
 179:u8g2_lib/u8g2_d_setup.c **** }
 1264              		.loc 1 179 0
 1265 002c 05B0     		add	sp, sp, #20
 1266              	.LCFI59:
 1267              		.cfi_def_cfa_offset 12
 1268              		@ sp needed
 1269 002e 30BD     		pop	{r4, r5, pc}
 1270              	.LVL179:
 1271              	.L80:
 1272              		.align	2
 1273              	.L79:
 1274 0030 00000000 		.word	u8x8_cad_ssd13xx_i2c
 1275 0034 00000000 		.word	u8x8_d_ssd1305_128x64_raystar
 1276 0038 00000000 		.word	u8g2_ll_hvline_vertical_top_lsb
 1277              		.cfi_endproc
 1278              	.LFE19:
 1280              		.section	.text.u8g2_Setup_ssd1305_i2c_128x64_adafruit_2,"ax",%progbits
 1281              		.align	2
 1282              		.global	u8g2_Setup_ssd1305_i2c_128x64_adafruit_2
 1283              		.thumb
 1284              		.thumb_func
 1286              	u8g2_Setup_ssd1305_i2c_128x64_adafruit_2:
 1287              	.LFB20:
ARM GAS  C:\Users\master\AppData\Local\Temp\ccmJvhxl.s 			page 26


 180:u8g2_lib/u8g2_d_setup.c **** /* ssd1305 2 */
 181:u8g2_lib/u8g2_d_setup.c **** void u8g2_Setup_ssd1305_i2c_128x64_adafruit_2(u8g2_t *u8g2, const u8g2_cb_t *rotation, u8x8_msg_cb 
 182:u8g2_lib/u8g2_d_setup.c **** {
 1288              		.loc 1 182 0
 1289              		.cfi_startproc
 1290              		@ args = 0, pretend = 0, frame = 8
 1291              		@ frame_needed = 0, uses_anonymous_args = 0
 1292              	.LVL180:
 1293 0000 30B5     		push	{r4, r5, lr}
 1294              	.LCFI60:
 1295              		.cfi_def_cfa_offset 12
 1296              		.cfi_offset 4, -12
 1297              		.cfi_offset 5, -8
 1298              		.cfi_offset 14, -4
 1299 0002 85B0     		sub	sp, sp, #20
 1300              	.LCFI61:
 1301              		.cfi_def_cfa_offset 32
 1302 0004 0446     		mov	r4, r0
 1303 0006 0D46     		mov	r5, r1
 183:u8g2_lib/u8g2_d_setup.c ****   uint8_t tile_buf_height;
 184:u8g2_lib/u8g2_d_setup.c ****   uint8_t *buf;
 185:u8g2_lib/u8g2_d_setup.c ****   u8g2_SetupDisplay(u8g2, u8x8_d_ssd1305_128x64_adafruit, u8x8_cad_ssd13xx_i2c, byte_cb, gpio_and_d
 1304              		.loc 1 185 0
 1305 0008 0093     		str	r3, [sp]
 1306 000a 1346     		mov	r3, r2
 1307              	.LVL181:
 1308 000c 084A     		ldr	r2, .L83
 1309              	.LVL182:
 1310 000e 0949     		ldr	r1, .L83+4
 1311              	.LVL183:
 1312 0010 FFF7FEFF 		bl	u8x8_Setup
 1313              	.LVL184:
 186:u8g2_lib/u8g2_d_setup.c ****   buf = u8g2_m_16_8_2(&tile_buf_height);
 1314              		.loc 1 186 0
 1315 0014 0DF10F00 		add	r0, sp, #15
 1316 0018 FFF7FEFF 		bl	u8g2_m_16_8_2
 1317              	.LVL185:
 187:u8g2_lib/u8g2_d_setup.c ****   u8g2_SetupBuffer(u8g2, buf, tile_buf_height, u8g2_ll_hvline_vertical_top_lsb, rotation);
 1318              		.loc 1 187 0
 1319 001c 9DF80F20 		ldrb	r2, [sp, #15]	@ zero_extendqisi2
 1320 0020 0095     		str	r5, [sp]
 1321 0022 054B     		ldr	r3, .L83+8
 1322 0024 0146     		mov	r1, r0
 1323 0026 2046     		mov	r0, r4
 1324              	.LVL186:
 1325 0028 FFF7FEFF 		bl	u8g2_SetupBuffer
 1326              	.LVL187:
 188:u8g2_lib/u8g2_d_setup.c **** }
 1327              		.loc 1 188 0
 1328 002c 05B0     		add	sp, sp, #20
 1329              	.LCFI62:
 1330              		.cfi_def_cfa_offset 12
 1331              		@ sp needed
 1332 002e 30BD     		pop	{r4, r5, pc}
 1333              	.LVL188:
 1334              	.L84:
 1335              		.align	2
ARM GAS  C:\Users\master\AppData\Local\Temp\ccmJvhxl.s 			page 27


 1336              	.L83:
 1337 0030 00000000 		.word	u8x8_cad_ssd13xx_i2c
 1338 0034 00000000 		.word	u8x8_d_ssd1305_128x64_adafruit
 1339 0038 00000000 		.word	u8g2_ll_hvline_vertical_top_lsb
 1340              		.cfi_endproc
 1341              	.LFE20:
 1343              		.section	.text.u8g2_Setup_ssd1305_i2c_128x64_raystar_2,"ax",%progbits
 1344              		.align	2
 1345              		.global	u8g2_Setup_ssd1305_i2c_128x64_raystar_2
 1346              		.thumb
 1347              		.thumb_func
 1349              	u8g2_Setup_ssd1305_i2c_128x64_raystar_2:
 1350              	.LFB21:
 189:u8g2_lib/u8g2_d_setup.c **** void u8g2_Setup_ssd1305_i2c_128x64_raystar_2(u8g2_t *u8g2, const u8g2_cb_t *rotation, u8x8_msg_cb b
 190:u8g2_lib/u8g2_d_setup.c **** {
 1351              		.loc 1 190 0
 1352              		.cfi_startproc
 1353              		@ args = 0, pretend = 0, frame = 8
 1354              		@ frame_needed = 0, uses_anonymous_args = 0
 1355              	.LVL189:
 1356 0000 30B5     		push	{r4, r5, lr}
 1357              	.LCFI63:
 1358              		.cfi_def_cfa_offset 12
 1359              		.cfi_offset 4, -12
 1360              		.cfi_offset 5, -8
 1361              		.cfi_offset 14, -4
 1362 0002 85B0     		sub	sp, sp, #20
 1363              	.LCFI64:
 1364              		.cfi_def_cfa_offset 32
 1365 0004 0446     		mov	r4, r0
 1366 0006 0D46     		mov	r5, r1
 191:u8g2_lib/u8g2_d_setup.c ****   uint8_t tile_buf_height;
 192:u8g2_lib/u8g2_d_setup.c ****   uint8_t *buf;
 193:u8g2_lib/u8g2_d_setup.c ****   u8g2_SetupDisplay(u8g2, u8x8_d_ssd1305_128x64_raystar, u8x8_cad_ssd13xx_i2c, byte_cb, gpio_and_de
 1367              		.loc 1 193 0
 1368 0008 0093     		str	r3, [sp]
 1369 000a 1346     		mov	r3, r2
 1370              	.LVL190:
 1371 000c 084A     		ldr	r2, .L87
 1372              	.LVL191:
 1373 000e 0949     		ldr	r1, .L87+4
 1374              	.LVL192:
 1375 0010 FFF7FEFF 		bl	u8x8_Setup
 1376              	.LVL193:
 194:u8g2_lib/u8g2_d_setup.c ****   buf = u8g2_m_16_8_2(&tile_buf_height);
 1377              		.loc 1 194 0
 1378 0014 0DF10F00 		add	r0, sp, #15
 1379 0018 FFF7FEFF 		bl	u8g2_m_16_8_2
 1380              	.LVL194:
 195:u8g2_lib/u8g2_d_setup.c ****   u8g2_SetupBuffer(u8g2, buf, tile_buf_height, u8g2_ll_hvline_vertical_top_lsb, rotation);
 1381              		.loc 1 195 0
 1382 001c 9DF80F20 		ldrb	r2, [sp, #15]	@ zero_extendqisi2
 1383 0020 0095     		str	r5, [sp]
 1384 0022 054B     		ldr	r3, .L87+8
 1385 0024 0146     		mov	r1, r0
 1386 0026 2046     		mov	r0, r4
 1387              	.LVL195:
ARM GAS  C:\Users\master\AppData\Local\Temp\ccmJvhxl.s 			page 28


 1388 0028 FFF7FEFF 		bl	u8g2_SetupBuffer
 1389              	.LVL196:
 196:u8g2_lib/u8g2_d_setup.c **** }
 1390              		.loc 1 196 0
 1391 002c 05B0     		add	sp, sp, #20
 1392              	.LCFI65:
 1393              		.cfi_def_cfa_offset 12
 1394              		@ sp needed
 1395 002e 30BD     		pop	{r4, r5, pc}
 1396              	.LVL197:
 1397              	.L88:
 1398              		.align	2
 1399              	.L87:
 1400 0030 00000000 		.word	u8x8_cad_ssd13xx_i2c
 1401 0034 00000000 		.word	u8x8_d_ssd1305_128x64_raystar
 1402 0038 00000000 		.word	u8g2_ll_hvline_vertical_top_lsb
 1403              		.cfi_endproc
 1404              	.LFE21:
 1406              		.section	.text.u8g2_Setup_ssd1305_i2c_128x64_adafruit_f,"ax",%progbits
 1407              		.align	2
 1408              		.global	u8g2_Setup_ssd1305_i2c_128x64_adafruit_f
 1409              		.thumb
 1410              		.thumb_func
 1412              	u8g2_Setup_ssd1305_i2c_128x64_adafruit_f:
 1413              	.LFB22:
 197:u8g2_lib/u8g2_d_setup.c **** /* ssd1305 f */
 198:u8g2_lib/u8g2_d_setup.c **** void u8g2_Setup_ssd1305_i2c_128x64_adafruit_f(u8g2_t *u8g2, const u8g2_cb_t *rotation, u8x8_msg_cb 
 199:u8g2_lib/u8g2_d_setup.c **** {
 1414              		.loc 1 199 0
 1415              		.cfi_startproc
 1416              		@ args = 0, pretend = 0, frame = 8
 1417              		@ frame_needed = 0, uses_anonymous_args = 0
 1418              	.LVL198:
 1419 0000 30B5     		push	{r4, r5, lr}
 1420              	.LCFI66:
 1421              		.cfi_def_cfa_offset 12
 1422              		.cfi_offset 4, -12
 1423              		.cfi_offset 5, -8
 1424              		.cfi_offset 14, -4
 1425 0002 85B0     		sub	sp, sp, #20
 1426              	.LCFI67:
 1427              		.cfi_def_cfa_offset 32
 1428 0004 0446     		mov	r4, r0
 1429 0006 0D46     		mov	r5, r1
 200:u8g2_lib/u8g2_d_setup.c ****   uint8_t tile_buf_height;
 201:u8g2_lib/u8g2_d_setup.c ****   uint8_t *buf;
 202:u8g2_lib/u8g2_d_setup.c ****   u8g2_SetupDisplay(u8g2, u8x8_d_ssd1305_128x64_adafruit, u8x8_cad_ssd13xx_i2c, byte_cb, gpio_and_d
 1430              		.loc 1 202 0
 1431 0008 0093     		str	r3, [sp]
 1432 000a 1346     		mov	r3, r2
 1433              	.LVL199:
 1434 000c 084A     		ldr	r2, .L91
 1435              	.LVL200:
 1436 000e 0949     		ldr	r1, .L91+4
 1437              	.LVL201:
 1438 0010 FFF7FEFF 		bl	u8x8_Setup
 1439              	.LVL202:
ARM GAS  C:\Users\master\AppData\Local\Temp\ccmJvhxl.s 			page 29


 203:u8g2_lib/u8g2_d_setup.c ****   buf = u8g2_m_16_8_f(&tile_buf_height);
 1440              		.loc 1 203 0
 1441 0014 0DF10F00 		add	r0, sp, #15
 1442 0018 FFF7FEFF 		bl	u8g2_m_16_8_f
 1443              	.LVL203:
 204:u8g2_lib/u8g2_d_setup.c ****   u8g2_SetupBuffer(u8g2, buf, tile_buf_height, u8g2_ll_hvline_vertical_top_lsb, rotation);
 1444              		.loc 1 204 0
 1445 001c 9DF80F20 		ldrb	r2, [sp, #15]	@ zero_extendqisi2
 1446 0020 0095     		str	r5, [sp]
 1447 0022 054B     		ldr	r3, .L91+8
 1448 0024 0146     		mov	r1, r0
 1449 0026 2046     		mov	r0, r4
 1450              	.LVL204:
 1451 0028 FFF7FEFF 		bl	u8g2_SetupBuffer
 1452              	.LVL205:
 205:u8g2_lib/u8g2_d_setup.c **** }
 1453              		.loc 1 205 0
 1454 002c 05B0     		add	sp, sp, #20
 1455              	.LCFI68:
 1456              		.cfi_def_cfa_offset 12
 1457              		@ sp needed
 1458 002e 30BD     		pop	{r4, r5, pc}
 1459              	.LVL206:
 1460              	.L92:
 1461              		.align	2
 1462              	.L91:
 1463 0030 00000000 		.word	u8x8_cad_ssd13xx_i2c
 1464 0034 00000000 		.word	u8x8_d_ssd1305_128x64_adafruit
 1465 0038 00000000 		.word	u8g2_ll_hvline_vertical_top_lsb
 1466              		.cfi_endproc
 1467              	.LFE22:
 1469              		.section	.text.u8g2_Setup_ssd1305_i2c_128x64_raystar_f,"ax",%progbits
 1470              		.align	2
 1471              		.global	u8g2_Setup_ssd1305_i2c_128x64_raystar_f
 1472              		.thumb
 1473              		.thumb_func
 1475              	u8g2_Setup_ssd1305_i2c_128x64_raystar_f:
 1476              	.LFB23:
 206:u8g2_lib/u8g2_d_setup.c **** void u8g2_Setup_ssd1305_i2c_128x64_raystar_f(u8g2_t *u8g2, const u8g2_cb_t *rotation, u8x8_msg_cb b
 207:u8g2_lib/u8g2_d_setup.c **** {
 1477              		.loc 1 207 0
 1478              		.cfi_startproc
 1479              		@ args = 0, pretend = 0, frame = 8
 1480              		@ frame_needed = 0, uses_anonymous_args = 0
 1481              	.LVL207:
 1482 0000 30B5     		push	{r4, r5, lr}
 1483              	.LCFI69:
 1484              		.cfi_def_cfa_offset 12
 1485              		.cfi_offset 4, -12
 1486              		.cfi_offset 5, -8
 1487              		.cfi_offset 14, -4
 1488 0002 85B0     		sub	sp, sp, #20
 1489              	.LCFI70:
 1490              		.cfi_def_cfa_offset 32
 1491 0004 0446     		mov	r4, r0
 1492 0006 0D46     		mov	r5, r1
 208:u8g2_lib/u8g2_d_setup.c ****   uint8_t tile_buf_height;
ARM GAS  C:\Users\master\AppData\Local\Temp\ccmJvhxl.s 			page 30


 209:u8g2_lib/u8g2_d_setup.c ****   uint8_t *buf;
 210:u8g2_lib/u8g2_d_setup.c ****   u8g2_SetupDisplay(u8g2, u8x8_d_ssd1305_128x64_raystar, u8x8_cad_ssd13xx_i2c, byte_cb, gpio_and_de
 1493              		.loc 1 210 0
 1494 0008 0093     		str	r3, [sp]
 1495 000a 1346     		mov	r3, r2
 1496              	.LVL208:
 1497 000c 084A     		ldr	r2, .L95
 1498              	.LVL209:
 1499 000e 0949     		ldr	r1, .L95+4
 1500              	.LVL210:
 1501 0010 FFF7FEFF 		bl	u8x8_Setup
 1502              	.LVL211:
 211:u8g2_lib/u8g2_d_setup.c ****   buf = u8g2_m_16_8_f(&tile_buf_height);
 1503              		.loc 1 211 0
 1504 0014 0DF10F00 		add	r0, sp, #15
 1505 0018 FFF7FEFF 		bl	u8g2_m_16_8_f
 1506              	.LVL212:
 212:u8g2_lib/u8g2_d_setup.c ****   u8g2_SetupBuffer(u8g2, buf, tile_buf_height, u8g2_ll_hvline_vertical_top_lsb, rotation);
 1507              		.loc 1 212 0
 1508 001c 9DF80F20 		ldrb	r2, [sp, #15]	@ zero_extendqisi2
 1509 0020 0095     		str	r5, [sp]
 1510 0022 054B     		ldr	r3, .L95+8
 1511 0024 0146     		mov	r1, r0
 1512 0026 2046     		mov	r0, r4
 1513              	.LVL213:
 1514 0028 FFF7FEFF 		bl	u8g2_SetupBuffer
 1515              	.LVL214:
 213:u8g2_lib/u8g2_d_setup.c **** }
 1516              		.loc 1 213 0
 1517 002c 05B0     		add	sp, sp, #20
 1518              	.LCFI71:
 1519              		.cfi_def_cfa_offset 12
 1520              		@ sp needed
 1521 002e 30BD     		pop	{r4, r5, pc}
 1522              	.LVL215:
 1523              	.L96:
 1524              		.align	2
 1525              	.L95:
 1526 0030 00000000 		.word	u8x8_cad_ssd13xx_i2c
 1527 0034 00000000 		.word	u8x8_d_ssd1305_128x64_raystar
 1528 0038 00000000 		.word	u8g2_ll_hvline_vertical_top_lsb
 1529              		.cfi_endproc
 1530              	.LFE23:
 1532              		.section	.text.u8g2_Setup_ssd1306_2040x16_1,"ax",%progbits
 1533              		.align	2
 1534              		.global	u8g2_Setup_ssd1306_2040x16_1
 1535              		.thumb
 1536              		.thumb_func
 1538              	u8g2_Setup_ssd1306_2040x16_1:
 1539              	.LFB24:
 214:u8g2_lib/u8g2_d_setup.c **** /* ssd1306 */
 215:u8g2_lib/u8g2_d_setup.c **** /* ssd1306 1 */
 216:u8g2_lib/u8g2_d_setup.c **** void u8g2_Setup_ssd1306_2040x16_1(u8g2_t *u8g2, const u8g2_cb_t *rotation, u8x8_msg_cb byte_cb, u8x
 217:u8g2_lib/u8g2_d_setup.c **** {
 1540              		.loc 1 217 0
 1541              		.cfi_startproc
 1542              		@ args = 0, pretend = 0, frame = 8
ARM GAS  C:\Users\master\AppData\Local\Temp\ccmJvhxl.s 			page 31


 1543              		@ frame_needed = 0, uses_anonymous_args = 0
 1544              	.LVL216:
 1545 0000 30B5     		push	{r4, r5, lr}
 1546              	.LCFI72:
 1547              		.cfi_def_cfa_offset 12
 1548              		.cfi_offset 4, -12
 1549              		.cfi_offset 5, -8
 1550              		.cfi_offset 14, -4
 1551 0002 85B0     		sub	sp, sp, #20
 1552              	.LCFI73:
 1553              		.cfi_def_cfa_offset 32
 1554 0004 0446     		mov	r4, r0
 1555 0006 0D46     		mov	r5, r1
 218:u8g2_lib/u8g2_d_setup.c ****   uint8_t tile_buf_height;
 219:u8g2_lib/u8g2_d_setup.c ****   uint8_t *buf;
 220:u8g2_lib/u8g2_d_setup.c ****   u8g2_SetupDisplay(u8g2, u8x8_d_ssd1306_2040x16, u8x8_cad_001, byte_cb, gpio_and_delay_cb);
 1556              		.loc 1 220 0
 1557 0008 0093     		str	r3, [sp]
 1558 000a 1346     		mov	r3, r2
 1559              	.LVL217:
 1560 000c 084A     		ldr	r2, .L99
 1561              	.LVL218:
 1562 000e 0949     		ldr	r1, .L99+4
 1563              	.LVL219:
 1564 0010 FFF7FEFF 		bl	u8x8_Setup
 1565              	.LVL220:
 221:u8g2_lib/u8g2_d_setup.c ****   buf = u8g2_m_255_2_1(&tile_buf_height);
 1566              		.loc 1 221 0
 1567 0014 0DF10F00 		add	r0, sp, #15
 1568 0018 FFF7FEFF 		bl	u8g2_m_255_2_1
 1569              	.LVL221:
 222:u8g2_lib/u8g2_d_setup.c ****   u8g2_SetupBuffer(u8g2, buf, tile_buf_height, u8g2_ll_hvline_vertical_top_lsb, rotation);
 1570              		.loc 1 222 0
 1571 001c 9DF80F20 		ldrb	r2, [sp, #15]	@ zero_extendqisi2
 1572 0020 0095     		str	r5, [sp]
 1573 0022 054B     		ldr	r3, .L99+8
 1574 0024 0146     		mov	r1, r0
 1575 0026 2046     		mov	r0, r4
 1576              	.LVL222:
 1577 0028 FFF7FEFF 		bl	u8g2_SetupBuffer
 1578              	.LVL223:
 223:u8g2_lib/u8g2_d_setup.c **** }
 1579              		.loc 1 223 0
 1580 002c 05B0     		add	sp, sp, #20
 1581              	.LCFI74:
 1582              		.cfi_def_cfa_offset 12
 1583              		@ sp needed
 1584 002e 30BD     		pop	{r4, r5, pc}
 1585              	.LVL224:
 1586              	.L100:
 1587              		.align	2
 1588              	.L99:
 1589 0030 00000000 		.word	u8x8_cad_001
 1590 0034 00000000 		.word	u8x8_d_ssd1306_2040x16
 1591 0038 00000000 		.word	u8g2_ll_hvline_vertical_top_lsb
 1592              		.cfi_endproc
 1593              	.LFE24:
ARM GAS  C:\Users\master\AppData\Local\Temp\ccmJvhxl.s 			page 32


 1595              		.section	.text.u8g2_Setup_ssd1306_2040x16_2,"ax",%progbits
 1596              		.align	2
 1597              		.global	u8g2_Setup_ssd1306_2040x16_2
 1598              		.thumb
 1599              		.thumb_func
 1601              	u8g2_Setup_ssd1306_2040x16_2:
 1602              	.LFB25:
 224:u8g2_lib/u8g2_d_setup.c **** /* ssd1306 2 */
 225:u8g2_lib/u8g2_d_setup.c **** void u8g2_Setup_ssd1306_2040x16_2(u8g2_t *u8g2, const u8g2_cb_t *rotation, u8x8_msg_cb byte_cb, u8x
 226:u8g2_lib/u8g2_d_setup.c **** {
 1603              		.loc 1 226 0
 1604              		.cfi_startproc
 1605              		@ args = 0, pretend = 0, frame = 8
 1606              		@ frame_needed = 0, uses_anonymous_args = 0
 1607              	.LVL225:
 1608 0000 30B5     		push	{r4, r5, lr}
 1609              	.LCFI75:
 1610              		.cfi_def_cfa_offset 12
 1611              		.cfi_offset 4, -12
 1612              		.cfi_offset 5, -8
 1613              		.cfi_offset 14, -4
 1614 0002 85B0     		sub	sp, sp, #20
 1615              	.LCFI76:
 1616              		.cfi_def_cfa_offset 32
 1617 0004 0446     		mov	r4, r0
 1618 0006 0D46     		mov	r5, r1
 227:u8g2_lib/u8g2_d_setup.c ****   uint8_t tile_buf_height;
 228:u8g2_lib/u8g2_d_setup.c ****   uint8_t *buf;
 229:u8g2_lib/u8g2_d_setup.c ****   u8g2_SetupDisplay(u8g2, u8x8_d_ssd1306_2040x16, u8x8_cad_001, byte_cb, gpio_and_delay_cb);
 1619              		.loc 1 229 0
 1620 0008 0093     		str	r3, [sp]
 1621 000a 1346     		mov	r3, r2
 1622              	.LVL226:
 1623 000c 084A     		ldr	r2, .L103
 1624              	.LVL227:
 1625 000e 0949     		ldr	r1, .L103+4
 1626              	.LVL228:
 1627 0010 FFF7FEFF 		bl	u8x8_Setup
 1628              	.LVL229:
 230:u8g2_lib/u8g2_d_setup.c ****   buf = u8g2_m_255_2_2(&tile_buf_height);
 1629              		.loc 1 230 0
 1630 0014 0DF10F00 		add	r0, sp, #15
 1631 0018 FFF7FEFF 		bl	u8g2_m_255_2_2
 1632              	.LVL230:
 231:u8g2_lib/u8g2_d_setup.c ****   u8g2_SetupBuffer(u8g2, buf, tile_buf_height, u8g2_ll_hvline_vertical_top_lsb, rotation);
 1633              		.loc 1 231 0
 1634 001c 9DF80F20 		ldrb	r2, [sp, #15]	@ zero_extendqisi2
 1635 0020 0095     		str	r5, [sp]
 1636 0022 054B     		ldr	r3, .L103+8
 1637 0024 0146     		mov	r1, r0
 1638 0026 2046     		mov	r0, r4
 1639              	.LVL231:
 1640 0028 FFF7FEFF 		bl	u8g2_SetupBuffer
 1641              	.LVL232:
 232:u8g2_lib/u8g2_d_setup.c **** }
 1642              		.loc 1 232 0
 1643 002c 05B0     		add	sp, sp, #20
ARM GAS  C:\Users\master\AppData\Local\Temp\ccmJvhxl.s 			page 33


 1644              	.LCFI77:
 1645              		.cfi_def_cfa_offset 12
 1646              		@ sp needed
 1647 002e 30BD     		pop	{r4, r5, pc}
 1648              	.LVL233:
 1649              	.L104:
 1650              		.align	2
 1651              	.L103:
 1652 0030 00000000 		.word	u8x8_cad_001
 1653 0034 00000000 		.word	u8x8_d_ssd1306_2040x16
 1654 0038 00000000 		.word	u8g2_ll_hvline_vertical_top_lsb
 1655              		.cfi_endproc
 1656              	.LFE25:
 1658              		.section	.text.u8g2_Setup_ssd1306_2040x16_f,"ax",%progbits
 1659              		.align	2
 1660              		.global	u8g2_Setup_ssd1306_2040x16_f
 1661              		.thumb
 1662              		.thumb_func
 1664              	u8g2_Setup_ssd1306_2040x16_f:
 1665              	.LFB26:
 233:u8g2_lib/u8g2_d_setup.c **** /* ssd1306 f */
 234:u8g2_lib/u8g2_d_setup.c **** void u8g2_Setup_ssd1306_2040x16_f(u8g2_t *u8g2, const u8g2_cb_t *rotation, u8x8_msg_cb byte_cb, u8x
 235:u8g2_lib/u8g2_d_setup.c **** {
 1666              		.loc 1 235 0
 1667              		.cfi_startproc
 1668              		@ args = 0, pretend = 0, frame = 8
 1669              		@ frame_needed = 0, uses_anonymous_args = 0
 1670              	.LVL234:
 1671 0000 30B5     		push	{r4, r5, lr}
 1672              	.LCFI78:
 1673              		.cfi_def_cfa_offset 12
 1674              		.cfi_offset 4, -12
 1675              		.cfi_offset 5, -8
 1676              		.cfi_offset 14, -4
 1677 0002 85B0     		sub	sp, sp, #20
 1678              	.LCFI79:
 1679              		.cfi_def_cfa_offset 32
 1680 0004 0446     		mov	r4, r0
 1681 0006 0D46     		mov	r5, r1
 236:u8g2_lib/u8g2_d_setup.c ****   uint8_t tile_buf_height;
 237:u8g2_lib/u8g2_d_setup.c ****   uint8_t *buf;
 238:u8g2_lib/u8g2_d_setup.c ****   u8g2_SetupDisplay(u8g2, u8x8_d_ssd1306_2040x16, u8x8_cad_001, byte_cb, gpio_and_delay_cb);
 1682              		.loc 1 238 0
 1683 0008 0093     		str	r3, [sp]
 1684 000a 1346     		mov	r3, r2
 1685              	.LVL235:
 1686 000c 084A     		ldr	r2, .L107
 1687              	.LVL236:
 1688 000e 0949     		ldr	r1, .L107+4
 1689              	.LVL237:
 1690 0010 FFF7FEFF 		bl	u8x8_Setup
 1691              	.LVL238:
 239:u8g2_lib/u8g2_d_setup.c ****   buf = u8g2_m_255_2_f(&tile_buf_height);
 1692              		.loc 1 239 0
 1693 0014 0DF10F00 		add	r0, sp, #15
 1694 0018 FFF7FEFF 		bl	u8g2_m_255_2_f
 1695              	.LVL239:
ARM GAS  C:\Users\master\AppData\Local\Temp\ccmJvhxl.s 			page 34


 240:u8g2_lib/u8g2_d_setup.c ****   u8g2_SetupBuffer(u8g2, buf, tile_buf_height, u8g2_ll_hvline_vertical_top_lsb, rotation);
 1696              		.loc 1 240 0
 1697 001c 9DF80F20 		ldrb	r2, [sp, #15]	@ zero_extendqisi2
 1698 0020 0095     		str	r5, [sp]
 1699 0022 054B     		ldr	r3, .L107+8
 1700 0024 0146     		mov	r1, r0
 1701 0026 2046     		mov	r0, r4
 1702              	.LVL240:
 1703 0028 FFF7FEFF 		bl	u8g2_SetupBuffer
 1704              	.LVL241:
 241:u8g2_lib/u8g2_d_setup.c **** }
 1705              		.loc 1 241 0
 1706 002c 05B0     		add	sp, sp, #20
 1707              	.LCFI80:
 1708              		.cfi_def_cfa_offset 12
 1709              		@ sp needed
 1710 002e 30BD     		pop	{r4, r5, pc}
 1711              	.LVL242:
 1712              	.L108:
 1713              		.align	2
 1714              	.L107:
 1715 0030 00000000 		.word	u8x8_cad_001
 1716 0034 00000000 		.word	u8x8_d_ssd1306_2040x16
 1717 0038 00000000 		.word	u8g2_ll_hvline_vertical_top_lsb
 1718              		.cfi_endproc
 1719              	.LFE26:
 1721              		.section	.text.u8g2_Setup_ssd1306_128x64_noname_1,"ax",%progbits
 1722              		.align	2
 1723              		.global	u8g2_Setup_ssd1306_128x64_noname_1
 1724              		.thumb
 1725              		.thumb_func
 1727              	u8g2_Setup_ssd1306_128x64_noname_1:
 1728              	.LFB27:
 242:u8g2_lib/u8g2_d_setup.c **** /* ssd1306 */
 243:u8g2_lib/u8g2_d_setup.c **** /* ssd1306 1 */
 244:u8g2_lib/u8g2_d_setup.c **** void u8g2_Setup_ssd1306_128x64_noname_1(u8g2_t *u8g2, const u8g2_cb_t *rotation, u8x8_msg_cb byte_c
 245:u8g2_lib/u8g2_d_setup.c **** {
 1729              		.loc 1 245 0
 1730              		.cfi_startproc
 1731              		@ args = 0, pretend = 0, frame = 8
 1732              		@ frame_needed = 0, uses_anonymous_args = 0
 1733              	.LVL243:
 1734 0000 30B5     		push	{r4, r5, lr}
 1735              	.LCFI81:
 1736              		.cfi_def_cfa_offset 12
 1737              		.cfi_offset 4, -12
 1738              		.cfi_offset 5, -8
 1739              		.cfi_offset 14, -4
 1740 0002 85B0     		sub	sp, sp, #20
 1741              	.LCFI82:
 1742              		.cfi_def_cfa_offset 32
 1743 0004 0446     		mov	r4, r0
 1744 0006 0D46     		mov	r5, r1
 246:u8g2_lib/u8g2_d_setup.c ****   uint8_t tile_buf_height;
 247:u8g2_lib/u8g2_d_setup.c ****   uint8_t *buf;
 248:u8g2_lib/u8g2_d_setup.c ****   u8g2_SetupDisplay(u8g2, u8x8_d_ssd1306_128x64_noname, u8x8_cad_001, byte_cb, gpio_and_delay_cb);
 1745              		.loc 1 248 0
ARM GAS  C:\Users\master\AppData\Local\Temp\ccmJvhxl.s 			page 35


 1746 0008 0093     		str	r3, [sp]
 1747 000a 1346     		mov	r3, r2
 1748              	.LVL244:
 1749 000c 084A     		ldr	r2, .L111
 1750              	.LVL245:
 1751 000e 0949     		ldr	r1, .L111+4
 1752              	.LVL246:
 1753 0010 FFF7FEFF 		bl	u8x8_Setup
 1754              	.LVL247:
 249:u8g2_lib/u8g2_d_setup.c ****   buf = u8g2_m_16_8_1(&tile_buf_height);
 1755              		.loc 1 249 0
 1756 0014 0DF10F00 		add	r0, sp, #15
 1757 0018 FFF7FEFF 		bl	u8g2_m_16_8_1
 1758              	.LVL248:
 250:u8g2_lib/u8g2_d_setup.c ****   u8g2_SetupBuffer(u8g2, buf, tile_buf_height, u8g2_ll_hvline_vertical_top_lsb, rotation);
 1759              		.loc 1 250 0
 1760 001c 9DF80F20 		ldrb	r2, [sp, #15]	@ zero_extendqisi2
 1761 0020 0095     		str	r5, [sp]
 1762 0022 054B     		ldr	r3, .L111+8
 1763 0024 0146     		mov	r1, r0
 1764 0026 2046     		mov	r0, r4
 1765              	.LVL249:
 1766 0028 FFF7FEFF 		bl	u8g2_SetupBuffer
 1767              	.LVL250:
 251:u8g2_lib/u8g2_d_setup.c **** }
 1768              		.loc 1 251 0
 1769 002c 05B0     		add	sp, sp, #20
 1770              	.LCFI83:
 1771              		.cfi_def_cfa_offset 12
 1772              		@ sp needed
 1773 002e 30BD     		pop	{r4, r5, pc}
 1774              	.LVL251:
 1775              	.L112:
 1776              		.align	2
 1777              	.L111:
 1778 0030 00000000 		.word	u8x8_cad_001
 1779 0034 00000000 		.word	u8x8_d_ssd1306_128x64_noname
 1780 0038 00000000 		.word	u8g2_ll_hvline_vertical_top_lsb
 1781              		.cfi_endproc
 1782              	.LFE27:
 1784              		.section	.text.u8g2_Setup_ssd1306_128x64_vcomh0_1,"ax",%progbits
 1785              		.align	2
 1786              		.global	u8g2_Setup_ssd1306_128x64_vcomh0_1
 1787              		.thumb
 1788              		.thumb_func
 1790              	u8g2_Setup_ssd1306_128x64_vcomh0_1:
 1791              	.LFB28:
 252:u8g2_lib/u8g2_d_setup.c **** void u8g2_Setup_ssd1306_128x64_vcomh0_1(u8g2_t *u8g2, const u8g2_cb_t *rotation, u8x8_msg_cb byte_c
 253:u8g2_lib/u8g2_d_setup.c **** {
 1792              		.loc 1 253 0
 1793              		.cfi_startproc
 1794              		@ args = 0, pretend = 0, frame = 8
 1795              		@ frame_needed = 0, uses_anonymous_args = 0
 1796              	.LVL252:
 1797 0000 30B5     		push	{r4, r5, lr}
 1798              	.LCFI84:
 1799              		.cfi_def_cfa_offset 12
ARM GAS  C:\Users\master\AppData\Local\Temp\ccmJvhxl.s 			page 36


 1800              		.cfi_offset 4, -12
 1801              		.cfi_offset 5, -8
 1802              		.cfi_offset 14, -4
 1803 0002 85B0     		sub	sp, sp, #20
 1804              	.LCFI85:
 1805              		.cfi_def_cfa_offset 32
 1806 0004 0446     		mov	r4, r0
 1807 0006 0D46     		mov	r5, r1
 254:u8g2_lib/u8g2_d_setup.c ****   uint8_t tile_buf_height;
 255:u8g2_lib/u8g2_d_setup.c ****   uint8_t *buf;
 256:u8g2_lib/u8g2_d_setup.c ****   u8g2_SetupDisplay(u8g2, u8x8_d_ssd1306_128x64_vcomh0, u8x8_cad_001, byte_cb, gpio_and_delay_cb);
 1808              		.loc 1 256 0
 1809 0008 0093     		str	r3, [sp]
 1810 000a 1346     		mov	r3, r2
 1811              	.LVL253:
 1812 000c 084A     		ldr	r2, .L115
 1813              	.LVL254:
 1814 000e 0949     		ldr	r1, .L115+4
 1815              	.LVL255:
 1816 0010 FFF7FEFF 		bl	u8x8_Setup
 1817              	.LVL256:
 257:u8g2_lib/u8g2_d_setup.c ****   buf = u8g2_m_16_8_1(&tile_buf_height);
 1818              		.loc 1 257 0
 1819 0014 0DF10F00 		add	r0, sp, #15
 1820 0018 FFF7FEFF 		bl	u8g2_m_16_8_1
 1821              	.LVL257:
 258:u8g2_lib/u8g2_d_setup.c ****   u8g2_SetupBuffer(u8g2, buf, tile_buf_height, u8g2_ll_hvline_vertical_top_lsb, rotation);
 1822              		.loc 1 258 0
 1823 001c 9DF80F20 		ldrb	r2, [sp, #15]	@ zero_extendqisi2
 1824 0020 0095     		str	r5, [sp]
 1825 0022 054B     		ldr	r3, .L115+8
 1826 0024 0146     		mov	r1, r0
 1827 0026 2046     		mov	r0, r4
 1828              	.LVL258:
 1829 0028 FFF7FEFF 		bl	u8g2_SetupBuffer
 1830              	.LVL259:
 259:u8g2_lib/u8g2_d_setup.c **** }
 1831              		.loc 1 259 0
 1832 002c 05B0     		add	sp, sp, #20
 1833              	.LCFI86:
 1834              		.cfi_def_cfa_offset 12
 1835              		@ sp needed
 1836 002e 30BD     		pop	{r4, r5, pc}
 1837              	.LVL260:
 1838              	.L116:
 1839              		.align	2
 1840              	.L115:
 1841 0030 00000000 		.word	u8x8_cad_001
 1842 0034 00000000 		.word	u8x8_d_ssd1306_128x64_vcomh0
 1843 0038 00000000 		.word	u8g2_ll_hvline_vertical_top_lsb
 1844              		.cfi_endproc
 1845              	.LFE28:
 1847              		.section	.text.u8g2_Setup_ssd1306_128x64_alt0_1,"ax",%progbits
 1848              		.align	2
 1849              		.global	u8g2_Setup_ssd1306_128x64_alt0_1
 1850              		.thumb
 1851              		.thumb_func
ARM GAS  C:\Users\master\AppData\Local\Temp\ccmJvhxl.s 			page 37


 1853              	u8g2_Setup_ssd1306_128x64_alt0_1:
 1854              	.LFB29:
 260:u8g2_lib/u8g2_d_setup.c **** void u8g2_Setup_ssd1306_128x64_alt0_1(u8g2_t *u8g2, const u8g2_cb_t *rotation, u8x8_msg_cb byte_cb,
 261:u8g2_lib/u8g2_d_setup.c **** {
 1855              		.loc 1 261 0
 1856              		.cfi_startproc
 1857              		@ args = 0, pretend = 0, frame = 8
 1858              		@ frame_needed = 0, uses_anonymous_args = 0
 1859              	.LVL261:
 1860 0000 30B5     		push	{r4, r5, lr}
 1861              	.LCFI87:
 1862              		.cfi_def_cfa_offset 12
 1863              		.cfi_offset 4, -12
 1864              		.cfi_offset 5, -8
 1865              		.cfi_offset 14, -4
 1866 0002 85B0     		sub	sp, sp, #20
 1867              	.LCFI88:
 1868              		.cfi_def_cfa_offset 32
 1869 0004 0446     		mov	r4, r0
 1870 0006 0D46     		mov	r5, r1
 262:u8g2_lib/u8g2_d_setup.c ****   uint8_t tile_buf_height;
 263:u8g2_lib/u8g2_d_setup.c ****   uint8_t *buf;
 264:u8g2_lib/u8g2_d_setup.c ****   u8g2_SetupDisplay(u8g2, u8x8_d_ssd1306_128x64_alt0, u8x8_cad_001, byte_cb, gpio_and_delay_cb);
 1871              		.loc 1 264 0
 1872 0008 0093     		str	r3, [sp]
 1873 000a 1346     		mov	r3, r2
 1874              	.LVL262:
 1875 000c 084A     		ldr	r2, .L119
 1876              	.LVL263:
 1877 000e 0949     		ldr	r1, .L119+4
 1878              	.LVL264:
 1879 0010 FFF7FEFF 		bl	u8x8_Setup
 1880              	.LVL265:
 265:u8g2_lib/u8g2_d_setup.c ****   buf = u8g2_m_16_8_1(&tile_buf_height);
 1881              		.loc 1 265 0
 1882 0014 0DF10F00 		add	r0, sp, #15
 1883 0018 FFF7FEFF 		bl	u8g2_m_16_8_1
 1884              	.LVL266:
 266:u8g2_lib/u8g2_d_setup.c ****   u8g2_SetupBuffer(u8g2, buf, tile_buf_height, u8g2_ll_hvline_vertical_top_lsb, rotation);
 1885              		.loc 1 266 0
 1886 001c 9DF80F20 		ldrb	r2, [sp, #15]	@ zero_extendqisi2
 1887 0020 0095     		str	r5, [sp]
 1888 0022 054B     		ldr	r3, .L119+8
 1889 0024 0146     		mov	r1, r0
 1890 0026 2046     		mov	r0, r4
 1891              	.LVL267:
 1892 0028 FFF7FEFF 		bl	u8g2_SetupBuffer
 1893              	.LVL268:
 267:u8g2_lib/u8g2_d_setup.c **** }
 1894              		.loc 1 267 0
 1895 002c 05B0     		add	sp, sp, #20
 1896              	.LCFI89:
 1897              		.cfi_def_cfa_offset 12
 1898              		@ sp needed
 1899 002e 30BD     		pop	{r4, r5, pc}
 1900              	.LVL269:
 1901              	.L120:
ARM GAS  C:\Users\master\AppData\Local\Temp\ccmJvhxl.s 			page 38


 1902              		.align	2
 1903              	.L119:
 1904 0030 00000000 		.word	u8x8_cad_001
 1905 0034 00000000 		.word	u8x8_d_ssd1306_128x64_alt0
 1906 0038 00000000 		.word	u8g2_ll_hvline_vertical_top_lsb
 1907              		.cfi_endproc
 1908              	.LFE29:
 1910              		.section	.text.u8g2_Setup_ssd1306_128x64_noname_2,"ax",%progbits
 1911              		.align	2
 1912              		.global	u8g2_Setup_ssd1306_128x64_noname_2
 1913              		.thumb
 1914              		.thumb_func
 1916              	u8g2_Setup_ssd1306_128x64_noname_2:
 1917              	.LFB30:
 268:u8g2_lib/u8g2_d_setup.c **** /* ssd1306 2 */
 269:u8g2_lib/u8g2_d_setup.c **** void u8g2_Setup_ssd1306_128x64_noname_2(u8g2_t *u8g2, const u8g2_cb_t *rotation, u8x8_msg_cb byte_c
 270:u8g2_lib/u8g2_d_setup.c **** {
 1918              		.loc 1 270 0
 1919              		.cfi_startproc
 1920              		@ args = 0, pretend = 0, frame = 8
 1921              		@ frame_needed = 0, uses_anonymous_args = 0
 1922              	.LVL270:
 1923 0000 30B5     		push	{r4, r5, lr}
 1924              	.LCFI90:
 1925              		.cfi_def_cfa_offset 12
 1926              		.cfi_offset 4, -12
 1927              		.cfi_offset 5, -8
 1928              		.cfi_offset 14, -4
 1929 0002 85B0     		sub	sp, sp, #20
 1930              	.LCFI91:
 1931              		.cfi_def_cfa_offset 32
 1932 0004 0446     		mov	r4, r0
 1933 0006 0D46     		mov	r5, r1
 271:u8g2_lib/u8g2_d_setup.c ****   uint8_t tile_buf_height;
 272:u8g2_lib/u8g2_d_setup.c ****   uint8_t *buf;
 273:u8g2_lib/u8g2_d_setup.c ****   u8g2_SetupDisplay(u8g2, u8x8_d_ssd1306_128x64_noname, u8x8_cad_001, byte_cb, gpio_and_delay_cb);
 1934              		.loc 1 273 0
 1935 0008 0093     		str	r3, [sp]
 1936 000a 1346     		mov	r3, r2
 1937              	.LVL271:
 1938 000c 084A     		ldr	r2, .L123
 1939              	.LVL272:
 1940 000e 0949     		ldr	r1, .L123+4
 1941              	.LVL273:
 1942 0010 FFF7FEFF 		bl	u8x8_Setup
 1943              	.LVL274:
 274:u8g2_lib/u8g2_d_setup.c ****   buf = u8g2_m_16_8_2(&tile_buf_height);
 1944              		.loc 1 274 0
 1945 0014 0DF10F00 		add	r0, sp, #15
 1946 0018 FFF7FEFF 		bl	u8g2_m_16_8_2
 1947              	.LVL275:
 275:u8g2_lib/u8g2_d_setup.c ****   u8g2_SetupBuffer(u8g2, buf, tile_buf_height, u8g2_ll_hvline_vertical_top_lsb, rotation);
 1948              		.loc 1 275 0
 1949 001c 9DF80F20 		ldrb	r2, [sp, #15]	@ zero_extendqisi2
 1950 0020 0095     		str	r5, [sp]
 1951 0022 054B     		ldr	r3, .L123+8
 1952 0024 0146     		mov	r1, r0
ARM GAS  C:\Users\master\AppData\Local\Temp\ccmJvhxl.s 			page 39


 1953 0026 2046     		mov	r0, r4
 1954              	.LVL276:
 1955 0028 FFF7FEFF 		bl	u8g2_SetupBuffer
 1956              	.LVL277:
 276:u8g2_lib/u8g2_d_setup.c **** }
 1957              		.loc 1 276 0
 1958 002c 05B0     		add	sp, sp, #20
 1959              	.LCFI92:
 1960              		.cfi_def_cfa_offset 12
 1961              		@ sp needed
 1962 002e 30BD     		pop	{r4, r5, pc}
 1963              	.LVL278:
 1964              	.L124:
 1965              		.align	2
 1966              	.L123:
 1967 0030 00000000 		.word	u8x8_cad_001
 1968 0034 00000000 		.word	u8x8_d_ssd1306_128x64_noname
 1969 0038 00000000 		.word	u8g2_ll_hvline_vertical_top_lsb
 1970              		.cfi_endproc
 1971              	.LFE30:
 1973              		.section	.text.u8g2_Setup_ssd1306_128x64_vcomh0_2,"ax",%progbits
 1974              		.align	2
 1975              		.global	u8g2_Setup_ssd1306_128x64_vcomh0_2
 1976              		.thumb
 1977              		.thumb_func
 1979              	u8g2_Setup_ssd1306_128x64_vcomh0_2:
 1980              	.LFB31:
 277:u8g2_lib/u8g2_d_setup.c **** void u8g2_Setup_ssd1306_128x64_vcomh0_2(u8g2_t *u8g2, const u8g2_cb_t *rotation, u8x8_msg_cb byte_c
 278:u8g2_lib/u8g2_d_setup.c **** {
 1981              		.loc 1 278 0
 1982              		.cfi_startproc
 1983              		@ args = 0, pretend = 0, frame = 8
 1984              		@ frame_needed = 0, uses_anonymous_args = 0
 1985              	.LVL279:
 1986 0000 30B5     		push	{r4, r5, lr}
 1987              	.LCFI93:
 1988              		.cfi_def_cfa_offset 12
 1989              		.cfi_offset 4, -12
 1990              		.cfi_offset 5, -8
 1991              		.cfi_offset 14, -4
 1992 0002 85B0     		sub	sp, sp, #20
 1993              	.LCFI94:
 1994              		.cfi_def_cfa_offset 32
 1995 0004 0446     		mov	r4, r0
 1996 0006 0D46     		mov	r5, r1
 279:u8g2_lib/u8g2_d_setup.c ****   uint8_t tile_buf_height;
 280:u8g2_lib/u8g2_d_setup.c ****   uint8_t *buf;
 281:u8g2_lib/u8g2_d_setup.c ****   u8g2_SetupDisplay(u8g2, u8x8_d_ssd1306_128x64_vcomh0, u8x8_cad_001, byte_cb, gpio_and_delay_cb);
 1997              		.loc 1 281 0
 1998 0008 0093     		str	r3, [sp]
 1999 000a 1346     		mov	r3, r2
 2000              	.LVL280:
 2001 000c 084A     		ldr	r2, .L127
 2002              	.LVL281:
 2003 000e 0949     		ldr	r1, .L127+4
 2004              	.LVL282:
 2005 0010 FFF7FEFF 		bl	u8x8_Setup
ARM GAS  C:\Users\master\AppData\Local\Temp\ccmJvhxl.s 			page 40


 2006              	.LVL283:
 282:u8g2_lib/u8g2_d_setup.c ****   buf = u8g2_m_16_8_2(&tile_buf_height);
 2007              		.loc 1 282 0
 2008 0014 0DF10F00 		add	r0, sp, #15
 2009 0018 FFF7FEFF 		bl	u8g2_m_16_8_2
 2010              	.LVL284:
 283:u8g2_lib/u8g2_d_setup.c ****   u8g2_SetupBuffer(u8g2, buf, tile_buf_height, u8g2_ll_hvline_vertical_top_lsb, rotation);
 2011              		.loc 1 283 0
 2012 001c 9DF80F20 		ldrb	r2, [sp, #15]	@ zero_extendqisi2
 2013 0020 0095     		str	r5, [sp]
 2014 0022 054B     		ldr	r3, .L127+8
 2015 0024 0146     		mov	r1, r0
 2016 0026 2046     		mov	r0, r4
 2017              	.LVL285:
 2018 0028 FFF7FEFF 		bl	u8g2_SetupBuffer
 2019              	.LVL286:
 284:u8g2_lib/u8g2_d_setup.c **** }
 2020              		.loc 1 284 0
 2021 002c 05B0     		add	sp, sp, #20
 2022              	.LCFI95:
 2023              		.cfi_def_cfa_offset 12
 2024              		@ sp needed
 2025 002e 30BD     		pop	{r4, r5, pc}
 2026              	.LVL287:
 2027              	.L128:
 2028              		.align	2
 2029              	.L127:
 2030 0030 00000000 		.word	u8x8_cad_001
 2031 0034 00000000 		.word	u8x8_d_ssd1306_128x64_vcomh0
 2032 0038 00000000 		.word	u8g2_ll_hvline_vertical_top_lsb
 2033              		.cfi_endproc
 2034              	.LFE31:
 2036              		.section	.text.u8g2_Setup_ssd1306_128x64_alt0_2,"ax",%progbits
 2037              		.align	2
 2038              		.global	u8g2_Setup_ssd1306_128x64_alt0_2
 2039              		.thumb
 2040              		.thumb_func
 2042              	u8g2_Setup_ssd1306_128x64_alt0_2:
 2043              	.LFB32:
 285:u8g2_lib/u8g2_d_setup.c **** void u8g2_Setup_ssd1306_128x64_alt0_2(u8g2_t *u8g2, const u8g2_cb_t *rotation, u8x8_msg_cb byte_cb,
 286:u8g2_lib/u8g2_d_setup.c **** {
 2044              		.loc 1 286 0
 2045              		.cfi_startproc
 2046              		@ args = 0, pretend = 0, frame = 8
 2047              		@ frame_needed = 0, uses_anonymous_args = 0
 2048              	.LVL288:
 2049 0000 30B5     		push	{r4, r5, lr}
 2050              	.LCFI96:
 2051              		.cfi_def_cfa_offset 12
 2052              		.cfi_offset 4, -12
 2053              		.cfi_offset 5, -8
 2054              		.cfi_offset 14, -4
 2055 0002 85B0     		sub	sp, sp, #20
 2056              	.LCFI97:
 2057              		.cfi_def_cfa_offset 32
 2058 0004 0446     		mov	r4, r0
 2059 0006 0D46     		mov	r5, r1
ARM GAS  C:\Users\master\AppData\Local\Temp\ccmJvhxl.s 			page 41


 287:u8g2_lib/u8g2_d_setup.c ****   uint8_t tile_buf_height;
 288:u8g2_lib/u8g2_d_setup.c ****   uint8_t *buf;
 289:u8g2_lib/u8g2_d_setup.c ****   u8g2_SetupDisplay(u8g2, u8x8_d_ssd1306_128x64_alt0, u8x8_cad_001, byte_cb, gpio_and_delay_cb);
 2060              		.loc 1 289 0
 2061 0008 0093     		str	r3, [sp]
 2062 000a 1346     		mov	r3, r2
 2063              	.LVL289:
 2064 000c 084A     		ldr	r2, .L131
 2065              	.LVL290:
 2066 000e 0949     		ldr	r1, .L131+4
 2067              	.LVL291:
 2068 0010 FFF7FEFF 		bl	u8x8_Setup
 2069              	.LVL292:
 290:u8g2_lib/u8g2_d_setup.c ****   buf = u8g2_m_16_8_2(&tile_buf_height);
 2070              		.loc 1 290 0
 2071 0014 0DF10F00 		add	r0, sp, #15
 2072 0018 FFF7FEFF 		bl	u8g2_m_16_8_2
 2073              	.LVL293:
 291:u8g2_lib/u8g2_d_setup.c ****   u8g2_SetupBuffer(u8g2, buf, tile_buf_height, u8g2_ll_hvline_vertical_top_lsb, rotation);
 2074              		.loc 1 291 0
 2075 001c 9DF80F20 		ldrb	r2, [sp, #15]	@ zero_extendqisi2
 2076 0020 0095     		str	r5, [sp]
 2077 0022 054B     		ldr	r3, .L131+8
 2078 0024 0146     		mov	r1, r0
 2079 0026 2046     		mov	r0, r4
 2080              	.LVL294:
 2081 0028 FFF7FEFF 		bl	u8g2_SetupBuffer
 2082              	.LVL295:
 292:u8g2_lib/u8g2_d_setup.c **** }
 2083              		.loc 1 292 0
 2084 002c 05B0     		add	sp, sp, #20
 2085              	.LCFI98:
 2086              		.cfi_def_cfa_offset 12
 2087              		@ sp needed
 2088 002e 30BD     		pop	{r4, r5, pc}
 2089              	.LVL296:
 2090              	.L132:
 2091              		.align	2
 2092              	.L131:
 2093 0030 00000000 		.word	u8x8_cad_001
 2094 0034 00000000 		.word	u8x8_d_ssd1306_128x64_alt0
 2095 0038 00000000 		.word	u8g2_ll_hvline_vertical_top_lsb
 2096              		.cfi_endproc
 2097              	.LFE32:
 2099              		.section	.text.u8g2_Setup_ssd1306_128x64_noname_f,"ax",%progbits
 2100              		.align	2
 2101              		.global	u8g2_Setup_ssd1306_128x64_noname_f
 2102              		.thumb
 2103              		.thumb_func
 2105              	u8g2_Setup_ssd1306_128x64_noname_f:
 2106              	.LFB33:
 293:u8g2_lib/u8g2_d_setup.c **** /* ssd1306 f */
 294:u8g2_lib/u8g2_d_setup.c **** void u8g2_Setup_ssd1306_128x64_noname_f(u8g2_t *u8g2, const u8g2_cb_t *rotation, u8x8_msg_cb byte_c
 295:u8g2_lib/u8g2_d_setup.c **** {
 2107              		.loc 1 295 0
 2108              		.cfi_startproc
 2109              		@ args = 0, pretend = 0, frame = 8
ARM GAS  C:\Users\master\AppData\Local\Temp\ccmJvhxl.s 			page 42


 2110              		@ frame_needed = 0, uses_anonymous_args = 0
 2111              	.LVL297:
 2112 0000 30B5     		push	{r4, r5, lr}
 2113              	.LCFI99:
 2114              		.cfi_def_cfa_offset 12
 2115              		.cfi_offset 4, -12
 2116              		.cfi_offset 5, -8
 2117              		.cfi_offset 14, -4
 2118 0002 85B0     		sub	sp, sp, #20
 2119              	.LCFI100:
 2120              		.cfi_def_cfa_offset 32
 2121 0004 0446     		mov	r4, r0
 2122 0006 0D46     		mov	r5, r1
 296:u8g2_lib/u8g2_d_setup.c ****   uint8_t tile_buf_height;
 297:u8g2_lib/u8g2_d_setup.c ****   uint8_t *buf;
 298:u8g2_lib/u8g2_d_setup.c ****   u8g2_SetupDisplay(u8g2, u8x8_d_ssd1306_128x64_noname, u8x8_cad_001, byte_cb, gpio_and_delay_cb);
 2123              		.loc 1 298 0
 2124 0008 0093     		str	r3, [sp]
 2125 000a 1346     		mov	r3, r2
 2126              	.LVL298:
 2127 000c 084A     		ldr	r2, .L135
 2128              	.LVL299:
 2129 000e 0949     		ldr	r1, .L135+4
 2130              	.LVL300:
 2131 0010 FFF7FEFF 		bl	u8x8_Setup
 2132              	.LVL301:
 299:u8g2_lib/u8g2_d_setup.c ****   buf = u8g2_m_16_8_f(&tile_buf_height);
 2133              		.loc 1 299 0
 2134 0014 0DF10F00 		add	r0, sp, #15
 2135 0018 FFF7FEFF 		bl	u8g2_m_16_8_f
 2136              	.LVL302:
 300:u8g2_lib/u8g2_d_setup.c ****   u8g2_SetupBuffer(u8g2, buf, tile_buf_height, u8g2_ll_hvline_vertical_top_lsb, rotation);
 2137              		.loc 1 300 0
 2138 001c 9DF80F20 		ldrb	r2, [sp, #15]	@ zero_extendqisi2
 2139 0020 0095     		str	r5, [sp]
 2140 0022 054B     		ldr	r3, .L135+8
 2141 0024 0146     		mov	r1, r0
 2142 0026 2046     		mov	r0, r4
 2143              	.LVL303:
 2144 0028 FFF7FEFF 		bl	u8g2_SetupBuffer
 2145              	.LVL304:
 301:u8g2_lib/u8g2_d_setup.c **** }
 2146              		.loc 1 301 0
 2147 002c 05B0     		add	sp, sp, #20
 2148              	.LCFI101:
 2149              		.cfi_def_cfa_offset 12
 2150              		@ sp needed
 2151 002e 30BD     		pop	{r4, r5, pc}
 2152              	.LVL305:
 2153              	.L136:
 2154              		.align	2
 2155              	.L135:
 2156 0030 00000000 		.word	u8x8_cad_001
 2157 0034 00000000 		.word	u8x8_d_ssd1306_128x64_noname
 2158 0038 00000000 		.word	u8g2_ll_hvline_vertical_top_lsb
 2159              		.cfi_endproc
 2160              	.LFE33:
ARM GAS  C:\Users\master\AppData\Local\Temp\ccmJvhxl.s 			page 43


 2162              		.section	.text.u8g2_Setup_ssd1306_128x64_vcomh0_f,"ax",%progbits
 2163              		.align	2
 2164              		.global	u8g2_Setup_ssd1306_128x64_vcomh0_f
 2165              		.thumb
 2166              		.thumb_func
 2168              	u8g2_Setup_ssd1306_128x64_vcomh0_f:
 2169              	.LFB34:
 302:u8g2_lib/u8g2_d_setup.c **** void u8g2_Setup_ssd1306_128x64_vcomh0_f(u8g2_t *u8g2, const u8g2_cb_t *rotation, u8x8_msg_cb byte_c
 303:u8g2_lib/u8g2_d_setup.c **** {
 2170              		.loc 1 303 0
 2171              		.cfi_startproc
 2172              		@ args = 0, pretend = 0, frame = 8
 2173              		@ frame_needed = 0, uses_anonymous_args = 0
 2174              	.LVL306:
 2175 0000 30B5     		push	{r4, r5, lr}
 2176              	.LCFI102:
 2177              		.cfi_def_cfa_offset 12
 2178              		.cfi_offset 4, -12
 2179              		.cfi_offset 5, -8
 2180              		.cfi_offset 14, -4
 2181 0002 85B0     		sub	sp, sp, #20
 2182              	.LCFI103:
 2183              		.cfi_def_cfa_offset 32
 2184 0004 0446     		mov	r4, r0
 2185 0006 0D46     		mov	r5, r1
 304:u8g2_lib/u8g2_d_setup.c ****   uint8_t tile_buf_height;
 305:u8g2_lib/u8g2_d_setup.c ****   uint8_t *buf;
 306:u8g2_lib/u8g2_d_setup.c ****   u8g2_SetupDisplay(u8g2, u8x8_d_ssd1306_128x64_vcomh0, u8x8_cad_001, byte_cb, gpio_and_delay_cb);
 2186              		.loc 1 306 0
 2187 0008 0093     		str	r3, [sp]
 2188 000a 1346     		mov	r3, r2
 2189              	.LVL307:
 2190 000c 084A     		ldr	r2, .L139
 2191              	.LVL308:
 2192 000e 0949     		ldr	r1, .L139+4
 2193              	.LVL309:
 2194 0010 FFF7FEFF 		bl	u8x8_Setup
 2195              	.LVL310:
 307:u8g2_lib/u8g2_d_setup.c ****   buf = u8g2_m_16_8_f(&tile_buf_height);
 2196              		.loc 1 307 0
 2197 0014 0DF10F00 		add	r0, sp, #15
 2198 0018 FFF7FEFF 		bl	u8g2_m_16_8_f
 2199              	.LVL311:
 308:u8g2_lib/u8g2_d_setup.c ****   u8g2_SetupBuffer(u8g2, buf, tile_buf_height, u8g2_ll_hvline_vertical_top_lsb, rotation);
 2200              		.loc 1 308 0
 2201 001c 9DF80F20 		ldrb	r2, [sp, #15]	@ zero_extendqisi2
 2202 0020 0095     		str	r5, [sp]
 2203 0022 054B     		ldr	r3, .L139+8
 2204 0024 0146     		mov	r1, r0
 2205 0026 2046     		mov	r0, r4
 2206              	.LVL312:
 2207 0028 FFF7FEFF 		bl	u8g2_SetupBuffer
 2208              	.LVL313:
 309:u8g2_lib/u8g2_d_setup.c **** }
 2209              		.loc 1 309 0
 2210 002c 05B0     		add	sp, sp, #20
 2211              	.LCFI104:
ARM GAS  C:\Users\master\AppData\Local\Temp\ccmJvhxl.s 			page 44


 2212              		.cfi_def_cfa_offset 12
 2213              		@ sp needed
 2214 002e 30BD     		pop	{r4, r5, pc}
 2215              	.LVL314:
 2216              	.L140:
 2217              		.align	2
 2218              	.L139:
 2219 0030 00000000 		.word	u8x8_cad_001
 2220 0034 00000000 		.word	u8x8_d_ssd1306_128x64_vcomh0
 2221 0038 00000000 		.word	u8g2_ll_hvline_vertical_top_lsb
 2222              		.cfi_endproc
 2223              	.LFE34:
 2225              		.section	.text.u8g2_Setup_ssd1306_128x64_alt0_f,"ax",%progbits
 2226              		.align	2
 2227              		.global	u8g2_Setup_ssd1306_128x64_alt0_f
 2228              		.thumb
 2229              		.thumb_func
 2231              	u8g2_Setup_ssd1306_128x64_alt0_f:
 2232              	.LFB35:
 310:u8g2_lib/u8g2_d_setup.c **** void u8g2_Setup_ssd1306_128x64_alt0_f(u8g2_t *u8g2, const u8g2_cb_t *rotation, u8x8_msg_cb byte_cb,
 311:u8g2_lib/u8g2_d_setup.c **** {
 2233              		.loc 1 311 0
 2234              		.cfi_startproc
 2235              		@ args = 0, pretend = 0, frame = 8
 2236              		@ frame_needed = 0, uses_anonymous_args = 0
 2237              	.LVL315:
 2238 0000 30B5     		push	{r4, r5, lr}
 2239              	.LCFI105:
 2240              		.cfi_def_cfa_offset 12
 2241              		.cfi_offset 4, -12
 2242              		.cfi_offset 5, -8
 2243              		.cfi_offset 14, -4
 2244 0002 85B0     		sub	sp, sp, #20
 2245              	.LCFI106:
 2246              		.cfi_def_cfa_offset 32
 2247 0004 0446     		mov	r4, r0
 2248 0006 0D46     		mov	r5, r1
 312:u8g2_lib/u8g2_d_setup.c ****   uint8_t tile_buf_height;
 313:u8g2_lib/u8g2_d_setup.c ****   uint8_t *buf;
 314:u8g2_lib/u8g2_d_setup.c ****   u8g2_SetupDisplay(u8g2, u8x8_d_ssd1306_128x64_alt0, u8x8_cad_001, byte_cb, gpio_and_delay_cb);
 2249              		.loc 1 314 0
 2250 0008 0093     		str	r3, [sp]
 2251 000a 1346     		mov	r3, r2
 2252              	.LVL316:
 2253 000c 084A     		ldr	r2, .L143
 2254              	.LVL317:
 2255 000e 0949     		ldr	r1, .L143+4
 2256              	.LVL318:
 2257 0010 FFF7FEFF 		bl	u8x8_Setup
 2258              	.LVL319:
 315:u8g2_lib/u8g2_d_setup.c ****   buf = u8g2_m_16_8_f(&tile_buf_height);
 2259              		.loc 1 315 0
 2260 0014 0DF10F00 		add	r0, sp, #15
 2261 0018 FFF7FEFF 		bl	u8g2_m_16_8_f
 2262              	.LVL320:
 316:u8g2_lib/u8g2_d_setup.c ****   u8g2_SetupBuffer(u8g2, buf, tile_buf_height, u8g2_ll_hvline_vertical_top_lsb, rotation);
 2263              		.loc 1 316 0
ARM GAS  C:\Users\master\AppData\Local\Temp\ccmJvhxl.s 			page 45


 2264 001c 9DF80F20 		ldrb	r2, [sp, #15]	@ zero_extendqisi2
 2265 0020 0095     		str	r5, [sp]
 2266 0022 054B     		ldr	r3, .L143+8
 2267 0024 0146     		mov	r1, r0
 2268 0026 2046     		mov	r0, r4
 2269              	.LVL321:
 2270 0028 FFF7FEFF 		bl	u8g2_SetupBuffer
 2271              	.LVL322:
 317:u8g2_lib/u8g2_d_setup.c **** }
 2272              		.loc 1 317 0
 2273 002c 05B0     		add	sp, sp, #20
 2274              	.LCFI107:
 2275              		.cfi_def_cfa_offset 12
 2276              		@ sp needed
 2277 002e 30BD     		pop	{r4, r5, pc}
 2278              	.LVL323:
 2279              	.L144:
 2280              		.align	2
 2281              	.L143:
 2282 0030 00000000 		.word	u8x8_cad_001
 2283 0034 00000000 		.word	u8x8_d_ssd1306_128x64_alt0
 2284 0038 00000000 		.word	u8g2_ll_hvline_vertical_top_lsb
 2285              		.cfi_endproc
 2286              	.LFE35:
 2288              		.section	.text.u8g2_Setup_ssd1306_i2c_128x64_noname_1,"ax",%progbits
 2289              		.align	2
 2290              		.global	u8g2_Setup_ssd1306_i2c_128x64_noname_1
 2291              		.thumb
 2292              		.thumb_func
 2294              	u8g2_Setup_ssd1306_i2c_128x64_noname_1:
 2295              	.LFB36:
 318:u8g2_lib/u8g2_d_setup.c **** /* ssd1306 */
 319:u8g2_lib/u8g2_d_setup.c **** /* ssd1306 1 */
 320:u8g2_lib/u8g2_d_setup.c **** void u8g2_Setup_ssd1306_i2c_128x64_noname_1(u8g2_t *u8g2, const u8g2_cb_t *rotation, u8x8_msg_cb by
 321:u8g2_lib/u8g2_d_setup.c **** {
 2296              		.loc 1 321 0
 2297              		.cfi_startproc
 2298              		@ args = 0, pretend = 0, frame = 8
 2299              		@ frame_needed = 0, uses_anonymous_args = 0
 2300              	.LVL324:
 2301 0000 30B5     		push	{r4, r5, lr}
 2302              	.LCFI108:
 2303              		.cfi_def_cfa_offset 12
 2304              		.cfi_offset 4, -12
 2305              		.cfi_offset 5, -8
 2306              		.cfi_offset 14, -4
 2307 0002 85B0     		sub	sp, sp, #20
 2308              	.LCFI109:
 2309              		.cfi_def_cfa_offset 32
 2310 0004 0446     		mov	r4, r0
 2311 0006 0D46     		mov	r5, r1
 322:u8g2_lib/u8g2_d_setup.c ****   uint8_t tile_buf_height;
 323:u8g2_lib/u8g2_d_setup.c ****   uint8_t *buf;
 324:u8g2_lib/u8g2_d_setup.c ****   u8g2_SetupDisplay(u8g2, u8x8_d_ssd1306_128x64_noname, u8x8_cad_ssd13xx_fast_i2c, byte_cb, gpio_an
 2312              		.loc 1 324 0
 2313 0008 0093     		str	r3, [sp]
 2314 000a 1346     		mov	r3, r2
ARM GAS  C:\Users\master\AppData\Local\Temp\ccmJvhxl.s 			page 46


 2315              	.LVL325:
 2316 000c 084A     		ldr	r2, .L147
 2317              	.LVL326:
 2318 000e 0949     		ldr	r1, .L147+4
 2319              	.LVL327:
 2320 0010 FFF7FEFF 		bl	u8x8_Setup
 2321              	.LVL328:
 325:u8g2_lib/u8g2_d_setup.c ****   buf = u8g2_m_16_8_1(&tile_buf_height);
 2322              		.loc 1 325 0
 2323 0014 0DF10F00 		add	r0, sp, #15
 2324 0018 FFF7FEFF 		bl	u8g2_m_16_8_1
 2325              	.LVL329:
 326:u8g2_lib/u8g2_d_setup.c ****   u8g2_SetupBuffer(u8g2, buf, tile_buf_height, u8g2_ll_hvline_vertical_top_lsb, rotation);
 2326              		.loc 1 326 0
 2327 001c 9DF80F20 		ldrb	r2, [sp, #15]	@ zero_extendqisi2
 2328 0020 0095     		str	r5, [sp]
 2329 0022 054B     		ldr	r3, .L147+8
 2330 0024 0146     		mov	r1, r0
 2331 0026 2046     		mov	r0, r4
 2332              	.LVL330:
 2333 0028 FFF7FEFF 		bl	u8g2_SetupBuffer
 2334              	.LVL331:
 327:u8g2_lib/u8g2_d_setup.c **** }
 2335              		.loc 1 327 0
 2336 002c 05B0     		add	sp, sp, #20
 2337              	.LCFI110:
 2338              		.cfi_def_cfa_offset 12
 2339              		@ sp needed
 2340 002e 30BD     		pop	{r4, r5, pc}
 2341              	.LVL332:
 2342              	.L148:
 2343              		.align	2
 2344              	.L147:
 2345 0030 00000000 		.word	u8x8_cad_ssd13xx_fast_i2c
 2346 0034 00000000 		.word	u8x8_d_ssd1306_128x64_noname
 2347 0038 00000000 		.word	u8g2_ll_hvline_vertical_top_lsb
 2348              		.cfi_endproc
 2349              	.LFE36:
 2351              		.section	.text.u8g2_Setup_ssd1306_i2c_128x64_vcomh0_1,"ax",%progbits
 2352              		.align	2
 2353              		.global	u8g2_Setup_ssd1306_i2c_128x64_vcomh0_1
 2354              		.thumb
 2355              		.thumb_func
 2357              	u8g2_Setup_ssd1306_i2c_128x64_vcomh0_1:
 2358              	.LFB37:
 328:u8g2_lib/u8g2_d_setup.c **** void u8g2_Setup_ssd1306_i2c_128x64_vcomh0_1(u8g2_t *u8g2, const u8g2_cb_t *rotation, u8x8_msg_cb by
 329:u8g2_lib/u8g2_d_setup.c **** {
 2359              		.loc 1 329 0
 2360              		.cfi_startproc
 2361              		@ args = 0, pretend = 0, frame = 8
 2362              		@ frame_needed = 0, uses_anonymous_args = 0
 2363              	.LVL333:
 2364 0000 30B5     		push	{r4, r5, lr}
 2365              	.LCFI111:
 2366              		.cfi_def_cfa_offset 12
 2367              		.cfi_offset 4, -12
 2368              		.cfi_offset 5, -8
ARM GAS  C:\Users\master\AppData\Local\Temp\ccmJvhxl.s 			page 47


 2369              		.cfi_offset 14, -4
 2370 0002 85B0     		sub	sp, sp, #20
 2371              	.LCFI112:
 2372              		.cfi_def_cfa_offset 32
 2373 0004 0446     		mov	r4, r0
 2374 0006 0D46     		mov	r5, r1
 330:u8g2_lib/u8g2_d_setup.c ****   uint8_t tile_buf_height;
 331:u8g2_lib/u8g2_d_setup.c ****   uint8_t *buf;
 332:u8g2_lib/u8g2_d_setup.c ****   u8g2_SetupDisplay(u8g2, u8x8_d_ssd1306_128x64_vcomh0, u8x8_cad_ssd13xx_fast_i2c, byte_cb, gpio_an
 2375              		.loc 1 332 0
 2376 0008 0093     		str	r3, [sp]
 2377 000a 1346     		mov	r3, r2
 2378              	.LVL334:
 2379 000c 084A     		ldr	r2, .L151
 2380              	.LVL335:
 2381 000e 0949     		ldr	r1, .L151+4
 2382              	.LVL336:
 2383 0010 FFF7FEFF 		bl	u8x8_Setup
 2384              	.LVL337:
 333:u8g2_lib/u8g2_d_setup.c ****   buf = u8g2_m_16_8_1(&tile_buf_height);
 2385              		.loc 1 333 0
 2386 0014 0DF10F00 		add	r0, sp, #15
 2387 0018 FFF7FEFF 		bl	u8g2_m_16_8_1
 2388              	.LVL338:
 334:u8g2_lib/u8g2_d_setup.c ****   u8g2_SetupBuffer(u8g2, buf, tile_buf_height, u8g2_ll_hvline_vertical_top_lsb, rotation);
 2389              		.loc 1 334 0
 2390 001c 9DF80F20 		ldrb	r2, [sp, #15]	@ zero_extendqisi2
 2391 0020 0095     		str	r5, [sp]
 2392 0022 054B     		ldr	r3, .L151+8
 2393 0024 0146     		mov	r1, r0
 2394 0026 2046     		mov	r0, r4
 2395              	.LVL339:
 2396 0028 FFF7FEFF 		bl	u8g2_SetupBuffer
 2397              	.LVL340:
 335:u8g2_lib/u8g2_d_setup.c **** }
 2398              		.loc 1 335 0
 2399 002c 05B0     		add	sp, sp, #20
 2400              	.LCFI113:
 2401              		.cfi_def_cfa_offset 12
 2402              		@ sp needed
 2403 002e 30BD     		pop	{r4, r5, pc}
 2404              	.LVL341:
 2405              	.L152:
 2406              		.align	2
 2407              	.L151:
 2408 0030 00000000 		.word	u8x8_cad_ssd13xx_fast_i2c
 2409 0034 00000000 		.word	u8x8_d_ssd1306_128x64_vcomh0
 2410 0038 00000000 		.word	u8g2_ll_hvline_vertical_top_lsb
 2411              		.cfi_endproc
 2412              	.LFE37:
 2414              		.section	.text.u8g2_Setup_ssd1306_i2c_128x64_alt0_1,"ax",%progbits
 2415              		.align	2
 2416              		.global	u8g2_Setup_ssd1306_i2c_128x64_alt0_1
 2417              		.thumb
 2418              		.thumb_func
 2420              	u8g2_Setup_ssd1306_i2c_128x64_alt0_1:
 2421              	.LFB38:
ARM GAS  C:\Users\master\AppData\Local\Temp\ccmJvhxl.s 			page 48


 336:u8g2_lib/u8g2_d_setup.c **** void u8g2_Setup_ssd1306_i2c_128x64_alt0_1(u8g2_t *u8g2, const u8g2_cb_t *rotation, u8x8_msg_cb byte
 337:u8g2_lib/u8g2_d_setup.c **** {
 2422              		.loc 1 337 0
 2423              		.cfi_startproc
 2424              		@ args = 0, pretend = 0, frame = 8
 2425              		@ frame_needed = 0, uses_anonymous_args = 0
 2426              	.LVL342:
 2427 0000 30B5     		push	{r4, r5, lr}
 2428              	.LCFI114:
 2429              		.cfi_def_cfa_offset 12
 2430              		.cfi_offset 4, -12
 2431              		.cfi_offset 5, -8
 2432              		.cfi_offset 14, -4
 2433 0002 85B0     		sub	sp, sp, #20
 2434              	.LCFI115:
 2435              		.cfi_def_cfa_offset 32
 2436 0004 0446     		mov	r4, r0
 2437 0006 0D46     		mov	r5, r1
 338:u8g2_lib/u8g2_d_setup.c ****   uint8_t tile_buf_height;
 339:u8g2_lib/u8g2_d_setup.c ****   uint8_t *buf;
 340:u8g2_lib/u8g2_d_setup.c ****   u8g2_SetupDisplay(u8g2, u8x8_d_ssd1306_128x64_alt0, u8x8_cad_ssd13xx_fast_i2c, byte_cb, gpio_and_
 2438              		.loc 1 340 0
 2439 0008 0093     		str	r3, [sp]
 2440 000a 1346     		mov	r3, r2
 2441              	.LVL343:
 2442 000c 084A     		ldr	r2, .L155
 2443              	.LVL344:
 2444 000e 0949     		ldr	r1, .L155+4
 2445              	.LVL345:
 2446 0010 FFF7FEFF 		bl	u8x8_Setup
 2447              	.LVL346:
 341:u8g2_lib/u8g2_d_setup.c ****   buf = u8g2_m_16_8_1(&tile_buf_height);
 2448              		.loc 1 341 0
 2449 0014 0DF10F00 		add	r0, sp, #15
 2450 0018 FFF7FEFF 		bl	u8g2_m_16_8_1
 2451              	.LVL347:
 342:u8g2_lib/u8g2_d_setup.c ****   u8g2_SetupBuffer(u8g2, buf, tile_buf_height, u8g2_ll_hvline_vertical_top_lsb, rotation);
 2452              		.loc 1 342 0
 2453 001c 9DF80F20 		ldrb	r2, [sp, #15]	@ zero_extendqisi2
 2454 0020 0095     		str	r5, [sp]
 2455 0022 054B     		ldr	r3, .L155+8
 2456 0024 0146     		mov	r1, r0
 2457 0026 2046     		mov	r0, r4
 2458              	.LVL348:
 2459 0028 FFF7FEFF 		bl	u8g2_SetupBuffer
 2460              	.LVL349:
 343:u8g2_lib/u8g2_d_setup.c **** }
 2461              		.loc 1 343 0
 2462 002c 05B0     		add	sp, sp, #20
 2463              	.LCFI116:
 2464              		.cfi_def_cfa_offset 12
 2465              		@ sp needed
 2466 002e 30BD     		pop	{r4, r5, pc}
 2467              	.LVL350:
 2468              	.L156:
 2469              		.align	2
 2470              	.L155:
ARM GAS  C:\Users\master\AppData\Local\Temp\ccmJvhxl.s 			page 49


 2471 0030 00000000 		.word	u8x8_cad_ssd13xx_fast_i2c
 2472 0034 00000000 		.word	u8x8_d_ssd1306_128x64_alt0
 2473 0038 00000000 		.word	u8g2_ll_hvline_vertical_top_lsb
 2474              		.cfi_endproc
 2475              	.LFE38:
 2477              		.section	.text.u8g2_Setup_ssd1306_i2c_128x64_noname_2,"ax",%progbits
 2478              		.align	2
 2479              		.global	u8g2_Setup_ssd1306_i2c_128x64_noname_2
 2480              		.thumb
 2481              		.thumb_func
 2483              	u8g2_Setup_ssd1306_i2c_128x64_noname_2:
 2484              	.LFB39:
 344:u8g2_lib/u8g2_d_setup.c **** /* ssd1306 2 */
 345:u8g2_lib/u8g2_d_setup.c **** void u8g2_Setup_ssd1306_i2c_128x64_noname_2(u8g2_t *u8g2, const u8g2_cb_t *rotation, u8x8_msg_cb by
 346:u8g2_lib/u8g2_d_setup.c **** {
 2485              		.loc 1 346 0
 2486              		.cfi_startproc
 2487              		@ args = 0, pretend = 0, frame = 8
 2488              		@ frame_needed = 0, uses_anonymous_args = 0
 2489              	.LVL351:
 2490 0000 30B5     		push	{r4, r5, lr}
 2491              	.LCFI117:
 2492              		.cfi_def_cfa_offset 12
 2493              		.cfi_offset 4, -12
 2494              		.cfi_offset 5, -8
 2495              		.cfi_offset 14, -4
 2496 0002 85B0     		sub	sp, sp, #20
 2497              	.LCFI118:
 2498              		.cfi_def_cfa_offset 32
 2499 0004 0446     		mov	r4, r0
 2500 0006 0D46     		mov	r5, r1
 347:u8g2_lib/u8g2_d_setup.c ****   uint8_t tile_buf_height;
 348:u8g2_lib/u8g2_d_setup.c ****   uint8_t *buf;
 349:u8g2_lib/u8g2_d_setup.c ****   u8g2_SetupDisplay(u8g2, u8x8_d_ssd1306_128x64_noname, u8x8_cad_ssd13xx_fast_i2c, byte_cb, gpio_an
 2501              		.loc 1 349 0
 2502 0008 0093     		str	r3, [sp]
 2503 000a 1346     		mov	r3, r2
 2504              	.LVL352:
 2505 000c 084A     		ldr	r2, .L159
 2506              	.LVL353:
 2507 000e 0949     		ldr	r1, .L159+4
 2508              	.LVL354:
 2509 0010 FFF7FEFF 		bl	u8x8_Setup
 2510              	.LVL355:
 350:u8g2_lib/u8g2_d_setup.c ****   buf = u8g2_m_16_8_2(&tile_buf_height);
 2511              		.loc 1 350 0
 2512 0014 0DF10F00 		add	r0, sp, #15
 2513 0018 FFF7FEFF 		bl	u8g2_m_16_8_2
 2514              	.LVL356:
 351:u8g2_lib/u8g2_d_setup.c ****   u8g2_SetupBuffer(u8g2, buf, tile_buf_height, u8g2_ll_hvline_vertical_top_lsb, rotation);
 2515              		.loc 1 351 0
 2516 001c 9DF80F20 		ldrb	r2, [sp, #15]	@ zero_extendqisi2
 2517 0020 0095     		str	r5, [sp]
 2518 0022 054B     		ldr	r3, .L159+8
 2519 0024 0146     		mov	r1, r0
 2520 0026 2046     		mov	r0, r4
 2521              	.LVL357:
ARM GAS  C:\Users\master\AppData\Local\Temp\ccmJvhxl.s 			page 50


 2522 0028 FFF7FEFF 		bl	u8g2_SetupBuffer
 2523              	.LVL358:
 352:u8g2_lib/u8g2_d_setup.c **** }
 2524              		.loc 1 352 0
 2525 002c 05B0     		add	sp, sp, #20
 2526              	.LCFI119:
 2527              		.cfi_def_cfa_offset 12
 2528              		@ sp needed
 2529 002e 30BD     		pop	{r4, r5, pc}
 2530              	.LVL359:
 2531              	.L160:
 2532              		.align	2
 2533              	.L159:
 2534 0030 00000000 		.word	u8x8_cad_ssd13xx_fast_i2c
 2535 0034 00000000 		.word	u8x8_d_ssd1306_128x64_noname
 2536 0038 00000000 		.word	u8g2_ll_hvline_vertical_top_lsb
 2537              		.cfi_endproc
 2538              	.LFE39:
 2540              		.section	.text.u8g2_Setup_ssd1306_i2c_128x64_vcomh0_2,"ax",%progbits
 2541              		.align	2
 2542              		.global	u8g2_Setup_ssd1306_i2c_128x64_vcomh0_2
 2543              		.thumb
 2544              		.thumb_func
 2546              	u8g2_Setup_ssd1306_i2c_128x64_vcomh0_2:
 2547              	.LFB40:
 353:u8g2_lib/u8g2_d_setup.c **** void u8g2_Setup_ssd1306_i2c_128x64_vcomh0_2(u8g2_t *u8g2, const u8g2_cb_t *rotation, u8x8_msg_cb by
 354:u8g2_lib/u8g2_d_setup.c **** {
 2548              		.loc 1 354 0
 2549              		.cfi_startproc
 2550              		@ args = 0, pretend = 0, frame = 8
 2551              		@ frame_needed = 0, uses_anonymous_args = 0
 2552              	.LVL360:
 2553 0000 30B5     		push	{r4, r5, lr}
 2554              	.LCFI120:
 2555              		.cfi_def_cfa_offset 12
 2556              		.cfi_offset 4, -12
 2557              		.cfi_offset 5, -8
 2558              		.cfi_offset 14, -4
 2559 0002 85B0     		sub	sp, sp, #20
 2560              	.LCFI121:
 2561              		.cfi_def_cfa_offset 32
 2562 0004 0446     		mov	r4, r0
 2563 0006 0D46     		mov	r5, r1
 355:u8g2_lib/u8g2_d_setup.c ****   uint8_t tile_buf_height;
 356:u8g2_lib/u8g2_d_setup.c ****   uint8_t *buf;
 357:u8g2_lib/u8g2_d_setup.c ****   u8g2_SetupDisplay(u8g2, u8x8_d_ssd1306_128x64_vcomh0, u8x8_cad_ssd13xx_fast_i2c, byte_cb, gpio_an
 2564              		.loc 1 357 0
 2565 0008 0093     		str	r3, [sp]
 2566 000a 1346     		mov	r3, r2
 2567              	.LVL361:
 2568 000c 084A     		ldr	r2, .L163
 2569              	.LVL362:
 2570 000e 0949     		ldr	r1, .L163+4
 2571              	.LVL363:
 2572 0010 FFF7FEFF 		bl	u8x8_Setup
 2573              	.LVL364:
 358:u8g2_lib/u8g2_d_setup.c ****   buf = u8g2_m_16_8_2(&tile_buf_height);
ARM GAS  C:\Users\master\AppData\Local\Temp\ccmJvhxl.s 			page 51


 2574              		.loc 1 358 0
 2575 0014 0DF10F00 		add	r0, sp, #15
 2576 0018 FFF7FEFF 		bl	u8g2_m_16_8_2
 2577              	.LVL365:
 359:u8g2_lib/u8g2_d_setup.c ****   u8g2_SetupBuffer(u8g2, buf, tile_buf_height, u8g2_ll_hvline_vertical_top_lsb, rotation);
 2578              		.loc 1 359 0
 2579 001c 9DF80F20 		ldrb	r2, [sp, #15]	@ zero_extendqisi2
 2580 0020 0095     		str	r5, [sp]
 2581 0022 054B     		ldr	r3, .L163+8
 2582 0024 0146     		mov	r1, r0
 2583 0026 2046     		mov	r0, r4
 2584              	.LVL366:
 2585 0028 FFF7FEFF 		bl	u8g2_SetupBuffer
 2586              	.LVL367:
 360:u8g2_lib/u8g2_d_setup.c **** }
 2587              		.loc 1 360 0
 2588 002c 05B0     		add	sp, sp, #20
 2589              	.LCFI122:
 2590              		.cfi_def_cfa_offset 12
 2591              		@ sp needed
 2592 002e 30BD     		pop	{r4, r5, pc}
 2593              	.LVL368:
 2594              	.L164:
 2595              		.align	2
 2596              	.L163:
 2597 0030 00000000 		.word	u8x8_cad_ssd13xx_fast_i2c
 2598 0034 00000000 		.word	u8x8_d_ssd1306_128x64_vcomh0
 2599 0038 00000000 		.word	u8g2_ll_hvline_vertical_top_lsb
 2600              		.cfi_endproc
 2601              	.LFE40:
 2603              		.section	.text.u8g2_Setup_ssd1306_i2c_128x64_alt0_2,"ax",%progbits
 2604              		.align	2
 2605              		.global	u8g2_Setup_ssd1306_i2c_128x64_alt0_2
 2606              		.thumb
 2607              		.thumb_func
 2609              	u8g2_Setup_ssd1306_i2c_128x64_alt0_2:
 2610              	.LFB41:
 361:u8g2_lib/u8g2_d_setup.c **** void u8g2_Setup_ssd1306_i2c_128x64_alt0_2(u8g2_t *u8g2, const u8g2_cb_t *rotation, u8x8_msg_cb byte
 362:u8g2_lib/u8g2_d_setup.c **** {
 2611              		.loc 1 362 0
 2612              		.cfi_startproc
 2613              		@ args = 0, pretend = 0, frame = 8
 2614              		@ frame_needed = 0, uses_anonymous_args = 0
 2615              	.LVL369:
 2616 0000 30B5     		push	{r4, r5, lr}
 2617              	.LCFI123:
 2618              		.cfi_def_cfa_offset 12
 2619              		.cfi_offset 4, -12
 2620              		.cfi_offset 5, -8
 2621              		.cfi_offset 14, -4
 2622 0002 85B0     		sub	sp, sp, #20
 2623              	.LCFI124:
 2624              		.cfi_def_cfa_offset 32
 2625 0004 0446     		mov	r4, r0
 2626 0006 0D46     		mov	r5, r1
 363:u8g2_lib/u8g2_d_setup.c ****   uint8_t tile_buf_height;
 364:u8g2_lib/u8g2_d_setup.c ****   uint8_t *buf;
ARM GAS  C:\Users\master\AppData\Local\Temp\ccmJvhxl.s 			page 52


 365:u8g2_lib/u8g2_d_setup.c ****   u8g2_SetupDisplay(u8g2, u8x8_d_ssd1306_128x64_alt0, u8x8_cad_ssd13xx_fast_i2c, byte_cb, gpio_and_
 2627              		.loc 1 365 0
 2628 0008 0093     		str	r3, [sp]
 2629 000a 1346     		mov	r3, r2
 2630              	.LVL370:
 2631 000c 084A     		ldr	r2, .L167
 2632              	.LVL371:
 2633 000e 0949     		ldr	r1, .L167+4
 2634              	.LVL372:
 2635 0010 FFF7FEFF 		bl	u8x8_Setup
 2636              	.LVL373:
 366:u8g2_lib/u8g2_d_setup.c ****   buf = u8g2_m_16_8_2(&tile_buf_height);
 2637              		.loc 1 366 0
 2638 0014 0DF10F00 		add	r0, sp, #15
 2639 0018 FFF7FEFF 		bl	u8g2_m_16_8_2
 2640              	.LVL374:
 367:u8g2_lib/u8g2_d_setup.c ****   u8g2_SetupBuffer(u8g2, buf, tile_buf_height, u8g2_ll_hvline_vertical_top_lsb, rotation);
 2641              		.loc 1 367 0
 2642 001c 9DF80F20 		ldrb	r2, [sp, #15]	@ zero_extendqisi2
 2643 0020 0095     		str	r5, [sp]
 2644 0022 054B     		ldr	r3, .L167+8
 2645 0024 0146     		mov	r1, r0
 2646 0026 2046     		mov	r0, r4
 2647              	.LVL375:
 2648 0028 FFF7FEFF 		bl	u8g2_SetupBuffer
 2649              	.LVL376:
 368:u8g2_lib/u8g2_d_setup.c **** }
 2650              		.loc 1 368 0
 2651 002c 05B0     		add	sp, sp, #20
 2652              	.LCFI125:
 2653              		.cfi_def_cfa_offset 12
 2654              		@ sp needed
 2655 002e 30BD     		pop	{r4, r5, pc}
 2656              	.LVL377:
 2657              	.L168:
 2658              		.align	2
 2659              	.L167:
 2660 0030 00000000 		.word	u8x8_cad_ssd13xx_fast_i2c
 2661 0034 00000000 		.word	u8x8_d_ssd1306_128x64_alt0
 2662 0038 00000000 		.word	u8g2_ll_hvline_vertical_top_lsb
 2663              		.cfi_endproc
 2664              	.LFE41:
 2666              		.section	.text.u8g2_Setup_ssd1306_i2c_128x64_noname_f,"ax",%progbits
 2667              		.align	2
 2668              		.global	u8g2_Setup_ssd1306_i2c_128x64_noname_f
 2669              		.thumb
 2670              		.thumb_func
 2672              	u8g2_Setup_ssd1306_i2c_128x64_noname_f:
 2673              	.LFB42:
 369:u8g2_lib/u8g2_d_setup.c **** /* ssd1306 f */
 370:u8g2_lib/u8g2_d_setup.c **** void u8g2_Setup_ssd1306_i2c_128x64_noname_f(u8g2_t *u8g2, const u8g2_cb_t *rotation, u8x8_msg_cb by
 371:u8g2_lib/u8g2_d_setup.c **** {
 2674              		.loc 1 371 0
 2675              		.cfi_startproc
 2676              		@ args = 0, pretend = 0, frame = 8
 2677              		@ frame_needed = 0, uses_anonymous_args = 0
 2678              	.LVL378:
ARM GAS  C:\Users\master\AppData\Local\Temp\ccmJvhxl.s 			page 53


 2679 0000 30B5     		push	{r4, r5, lr}
 2680              	.LCFI126:
 2681              		.cfi_def_cfa_offset 12
 2682              		.cfi_offset 4, -12
 2683              		.cfi_offset 5, -8
 2684              		.cfi_offset 14, -4
 2685 0002 85B0     		sub	sp, sp, #20
 2686              	.LCFI127:
 2687              		.cfi_def_cfa_offset 32
 2688 0004 0446     		mov	r4, r0
 2689 0006 0D46     		mov	r5, r1
 372:u8g2_lib/u8g2_d_setup.c ****   uint8_t tile_buf_height;
 373:u8g2_lib/u8g2_d_setup.c ****   uint8_t *buf;
 374:u8g2_lib/u8g2_d_setup.c ****   u8g2_SetupDisplay(u8g2, u8x8_d_ssd1306_128x64_noname, u8x8_cad_ssd13xx_fast_i2c, byte_cb, gpio_an
 2690              		.loc 1 374 0
 2691 0008 0093     		str	r3, [sp]
 2692 000a 1346     		mov	r3, r2
 2693              	.LVL379:
 2694 000c 084A     		ldr	r2, .L171
 2695              	.LVL380:
 2696 000e 0949     		ldr	r1, .L171+4
 2697              	.LVL381:
 2698 0010 FFF7FEFF 		bl	u8x8_Setup
 2699              	.LVL382:
 375:u8g2_lib/u8g2_d_setup.c ****   buf = u8g2_m_16_8_f(&tile_buf_height);
 2700              		.loc 1 375 0
 2701 0014 0DF10F00 		add	r0, sp, #15
 2702 0018 FFF7FEFF 		bl	u8g2_m_16_8_f
 2703              	.LVL383:
 376:u8g2_lib/u8g2_d_setup.c ****   u8g2_SetupBuffer(u8g2, buf, tile_buf_height, u8g2_ll_hvline_vertical_top_lsb, rotation);
 2704              		.loc 1 376 0
 2705 001c 9DF80F20 		ldrb	r2, [sp, #15]	@ zero_extendqisi2
 2706 0020 0095     		str	r5, [sp]
 2707 0022 054B     		ldr	r3, .L171+8
 2708 0024 0146     		mov	r1, r0
 2709 0026 2046     		mov	r0, r4
 2710              	.LVL384:
 2711 0028 FFF7FEFF 		bl	u8g2_SetupBuffer
 2712              	.LVL385:
 377:u8g2_lib/u8g2_d_setup.c **** }
 2713              		.loc 1 377 0
 2714 002c 05B0     		add	sp, sp, #20
 2715              	.LCFI128:
 2716              		.cfi_def_cfa_offset 12
 2717              		@ sp needed
 2718 002e 30BD     		pop	{r4, r5, pc}
 2719              	.LVL386:
 2720              	.L172:
 2721              		.align	2
 2722              	.L171:
 2723 0030 00000000 		.word	u8x8_cad_ssd13xx_fast_i2c
 2724 0034 00000000 		.word	u8x8_d_ssd1306_128x64_noname
 2725 0038 00000000 		.word	u8g2_ll_hvline_vertical_top_lsb
 2726              		.cfi_endproc
 2727              	.LFE42:
 2729              		.section	.text.u8g2_Setup_ssd1306_i2c_128x64_vcomh0_f,"ax",%progbits
 2730              		.align	2
ARM GAS  C:\Users\master\AppData\Local\Temp\ccmJvhxl.s 			page 54


 2731              		.global	u8g2_Setup_ssd1306_i2c_128x64_vcomh0_f
 2732              		.thumb
 2733              		.thumb_func
 2735              	u8g2_Setup_ssd1306_i2c_128x64_vcomh0_f:
 2736              	.LFB43:
 378:u8g2_lib/u8g2_d_setup.c **** void u8g2_Setup_ssd1306_i2c_128x64_vcomh0_f(u8g2_t *u8g2, const u8g2_cb_t *rotation, u8x8_msg_cb by
 379:u8g2_lib/u8g2_d_setup.c **** {
 2737              		.loc 1 379 0
 2738              		.cfi_startproc
 2739              		@ args = 0, pretend = 0, frame = 8
 2740              		@ frame_needed = 0, uses_anonymous_args = 0
 2741              	.LVL387:
 2742 0000 30B5     		push	{r4, r5, lr}
 2743              	.LCFI129:
 2744              		.cfi_def_cfa_offset 12
 2745              		.cfi_offset 4, -12
 2746              		.cfi_offset 5, -8
 2747              		.cfi_offset 14, -4
 2748 0002 85B0     		sub	sp, sp, #20
 2749              	.LCFI130:
 2750              		.cfi_def_cfa_offset 32
 2751 0004 0446     		mov	r4, r0
 2752 0006 0D46     		mov	r5, r1
 380:u8g2_lib/u8g2_d_setup.c ****   uint8_t tile_buf_height;
 381:u8g2_lib/u8g2_d_setup.c ****   uint8_t *buf;
 382:u8g2_lib/u8g2_d_setup.c ****   u8g2_SetupDisplay(u8g2, u8x8_d_ssd1306_128x64_vcomh0, u8x8_cad_ssd13xx_fast_i2c, byte_cb, gpio_an
 2753              		.loc 1 382 0
 2754 0008 0093     		str	r3, [sp]
 2755 000a 1346     		mov	r3, r2
 2756              	.LVL388:
 2757 000c 084A     		ldr	r2, .L175
 2758              	.LVL389:
 2759 000e 0949     		ldr	r1, .L175+4
 2760              	.LVL390:
 2761 0010 FFF7FEFF 		bl	u8x8_Setup
 2762              	.LVL391:
 383:u8g2_lib/u8g2_d_setup.c ****   buf = u8g2_m_16_8_f(&tile_buf_height);
 2763              		.loc 1 383 0
 2764 0014 0DF10F00 		add	r0, sp, #15
 2765 0018 FFF7FEFF 		bl	u8g2_m_16_8_f
 2766              	.LVL392:
 384:u8g2_lib/u8g2_d_setup.c ****   u8g2_SetupBuffer(u8g2, buf, tile_buf_height, u8g2_ll_hvline_vertical_top_lsb, rotation);
 2767              		.loc 1 384 0
 2768 001c 9DF80F20 		ldrb	r2, [sp, #15]	@ zero_extendqisi2
 2769 0020 0095     		str	r5, [sp]
 2770 0022 054B     		ldr	r3, .L175+8
 2771 0024 0146     		mov	r1, r0
 2772 0026 2046     		mov	r0, r4
 2773              	.LVL393:
 2774 0028 FFF7FEFF 		bl	u8g2_SetupBuffer
 2775              	.LVL394:
 385:u8g2_lib/u8g2_d_setup.c **** }
 2776              		.loc 1 385 0
 2777 002c 05B0     		add	sp, sp, #20
 2778              	.LCFI131:
 2779              		.cfi_def_cfa_offset 12
 2780              		@ sp needed
ARM GAS  C:\Users\master\AppData\Local\Temp\ccmJvhxl.s 			page 55


 2781 002e 30BD     		pop	{r4, r5, pc}
 2782              	.LVL395:
 2783              	.L176:
 2784              		.align	2
 2785              	.L175:
 2786 0030 00000000 		.word	u8x8_cad_ssd13xx_fast_i2c
 2787 0034 00000000 		.word	u8x8_d_ssd1306_128x64_vcomh0
 2788 0038 00000000 		.word	u8g2_ll_hvline_vertical_top_lsb
 2789              		.cfi_endproc
 2790              	.LFE43:
 2792              		.section	.text.u8g2_Setup_ssd1306_i2c_128x64_alt0_f,"ax",%progbits
 2793              		.align	2
 2794              		.global	u8g2_Setup_ssd1306_i2c_128x64_alt0_f
 2795              		.thumb
 2796              		.thumb_func
 2798              	u8g2_Setup_ssd1306_i2c_128x64_alt0_f:
 2799              	.LFB44:
 386:u8g2_lib/u8g2_d_setup.c **** void u8g2_Setup_ssd1306_i2c_128x64_alt0_f(u8g2_t *u8g2, const u8g2_cb_t *rotation, u8x8_msg_cb byte
 387:u8g2_lib/u8g2_d_setup.c **** {
 2800              		.loc 1 387 0
 2801              		.cfi_startproc
 2802              		@ args = 0, pretend = 0, frame = 8
 2803              		@ frame_needed = 0, uses_anonymous_args = 0
 2804              	.LVL396:
 2805 0000 30B5     		push	{r4, r5, lr}
 2806              	.LCFI132:
 2807              		.cfi_def_cfa_offset 12
 2808              		.cfi_offset 4, -12
 2809              		.cfi_offset 5, -8
 2810              		.cfi_offset 14, -4
 2811 0002 85B0     		sub	sp, sp, #20
 2812              	.LCFI133:
 2813              		.cfi_def_cfa_offset 32
 2814 0004 0446     		mov	r4, r0
 2815 0006 0D46     		mov	r5, r1
 388:u8g2_lib/u8g2_d_setup.c ****   uint8_t tile_buf_height;
 389:u8g2_lib/u8g2_d_setup.c ****   uint8_t *buf;
 390:u8g2_lib/u8g2_d_setup.c ****   u8g2_SetupDisplay(u8g2, u8x8_d_ssd1306_128x64_alt0, u8x8_cad_ssd13xx_fast_i2c, byte_cb, gpio_and_
 2816              		.loc 1 390 0
 2817 0008 0093     		str	r3, [sp]
 2818 000a 1346     		mov	r3, r2
 2819              	.LVL397:
 2820 000c 084A     		ldr	r2, .L179
 2821              	.LVL398:
 2822 000e 0949     		ldr	r1, .L179+4
 2823              	.LVL399:
 2824 0010 FFF7FEFF 		bl	u8x8_Setup
 2825              	.LVL400:
 391:u8g2_lib/u8g2_d_setup.c ****   buf = u8g2_m_16_8_f(&tile_buf_height);
 2826              		.loc 1 391 0
 2827 0014 0DF10F00 		add	r0, sp, #15
 2828 0018 FFF7FEFF 		bl	u8g2_m_16_8_f
 2829              	.LVL401:
 392:u8g2_lib/u8g2_d_setup.c ****   u8g2_SetupBuffer(u8g2, buf, tile_buf_height, u8g2_ll_hvline_vertical_top_lsb, rotation);
 2830              		.loc 1 392 0
 2831 001c 9DF80F20 		ldrb	r2, [sp, #15]	@ zero_extendqisi2
 2832 0020 0095     		str	r5, [sp]
ARM GAS  C:\Users\master\AppData\Local\Temp\ccmJvhxl.s 			page 56


 2833 0022 054B     		ldr	r3, .L179+8
 2834 0024 0146     		mov	r1, r0
 2835 0026 2046     		mov	r0, r4
 2836              	.LVL402:
 2837 0028 FFF7FEFF 		bl	u8g2_SetupBuffer
 2838              	.LVL403:
 393:u8g2_lib/u8g2_d_setup.c **** }
 2839              		.loc 1 393 0
 2840 002c 05B0     		add	sp, sp, #20
 2841              	.LCFI134:
 2842              		.cfi_def_cfa_offset 12
 2843              		@ sp needed
 2844 002e 30BD     		pop	{r4, r5, pc}
 2845              	.LVL404:
 2846              	.L180:
 2847              		.align	2
 2848              	.L179:
 2849 0030 00000000 		.word	u8x8_cad_ssd13xx_fast_i2c
 2850 0034 00000000 		.word	u8x8_d_ssd1306_128x64_alt0
 2851 0038 00000000 		.word	u8g2_ll_hvline_vertical_top_lsb
 2852              		.cfi_endproc
 2853              	.LFE44:
 2855              		.section	.text.u8g2_Setup_ssd1306_72x40_er_1,"ax",%progbits
 2856              		.align	2
 2857              		.global	u8g2_Setup_ssd1306_72x40_er_1
 2858              		.thumb
 2859              		.thumb_func
 2861              	u8g2_Setup_ssd1306_72x40_er_1:
 2862              	.LFB45:
 394:u8g2_lib/u8g2_d_setup.c **** /* ssd1306 */
 395:u8g2_lib/u8g2_d_setup.c **** /* ssd1306 1 */
 396:u8g2_lib/u8g2_d_setup.c **** void u8g2_Setup_ssd1306_72x40_er_1(u8g2_t *u8g2, const u8g2_cb_t *rotation, u8x8_msg_cb byte_cb, u8
 397:u8g2_lib/u8g2_d_setup.c **** {
 2863              		.loc 1 397 0
 2864              		.cfi_startproc
 2865              		@ args = 0, pretend = 0, frame = 8
 2866              		@ frame_needed = 0, uses_anonymous_args = 0
 2867              	.LVL405:
 2868 0000 30B5     		push	{r4, r5, lr}
 2869              	.LCFI135:
 2870              		.cfi_def_cfa_offset 12
 2871              		.cfi_offset 4, -12
 2872              		.cfi_offset 5, -8
 2873              		.cfi_offset 14, -4
 2874 0002 85B0     		sub	sp, sp, #20
 2875              	.LCFI136:
 2876              		.cfi_def_cfa_offset 32
 2877 0004 0446     		mov	r4, r0
 2878 0006 0D46     		mov	r5, r1
 398:u8g2_lib/u8g2_d_setup.c ****   uint8_t tile_buf_height;
 399:u8g2_lib/u8g2_d_setup.c ****   uint8_t *buf;
 400:u8g2_lib/u8g2_d_setup.c ****   u8g2_SetupDisplay(u8g2, u8x8_d_ssd1306_72x40_er, u8x8_cad_001, byte_cb, gpio_and_delay_cb);
 2879              		.loc 1 400 0
 2880 0008 0093     		str	r3, [sp]
 2881 000a 1346     		mov	r3, r2
 2882              	.LVL406:
 2883 000c 084A     		ldr	r2, .L183
ARM GAS  C:\Users\master\AppData\Local\Temp\ccmJvhxl.s 			page 57


 2884              	.LVL407:
 2885 000e 0949     		ldr	r1, .L183+4
 2886              	.LVL408:
 2887 0010 FFF7FEFF 		bl	u8x8_Setup
 2888              	.LVL409:
 401:u8g2_lib/u8g2_d_setup.c ****   buf = u8g2_m_9_5_1(&tile_buf_height);
 2889              		.loc 1 401 0
 2890 0014 0DF10F00 		add	r0, sp, #15
 2891 0018 FFF7FEFF 		bl	u8g2_m_9_5_1
 2892              	.LVL410:
 402:u8g2_lib/u8g2_d_setup.c ****   u8g2_SetupBuffer(u8g2, buf, tile_buf_height, u8g2_ll_hvline_vertical_top_lsb, rotation);
 2893              		.loc 1 402 0
 2894 001c 9DF80F20 		ldrb	r2, [sp, #15]	@ zero_extendqisi2
 2895 0020 0095     		str	r5, [sp]
 2896 0022 054B     		ldr	r3, .L183+8
 2897 0024 0146     		mov	r1, r0
 2898 0026 2046     		mov	r0, r4
 2899              	.LVL411:
 2900 0028 FFF7FEFF 		bl	u8g2_SetupBuffer
 2901              	.LVL412:
 403:u8g2_lib/u8g2_d_setup.c **** }
 2902              		.loc 1 403 0
 2903 002c 05B0     		add	sp, sp, #20
 2904              	.LCFI137:
 2905              		.cfi_def_cfa_offset 12
 2906              		@ sp needed
 2907 002e 30BD     		pop	{r4, r5, pc}
 2908              	.LVL413:
 2909              	.L184:
 2910              		.align	2
 2911              	.L183:
 2912 0030 00000000 		.word	u8x8_cad_001
 2913 0034 00000000 		.word	u8x8_d_ssd1306_72x40_er
 2914 0038 00000000 		.word	u8g2_ll_hvline_vertical_top_lsb
 2915              		.cfi_endproc
 2916              	.LFE45:
 2918              		.section	.text.u8g2_Setup_ssd1306_72x40_er_2,"ax",%progbits
 2919              		.align	2
 2920              		.global	u8g2_Setup_ssd1306_72x40_er_2
 2921              		.thumb
 2922              		.thumb_func
 2924              	u8g2_Setup_ssd1306_72x40_er_2:
 2925              	.LFB46:
 404:u8g2_lib/u8g2_d_setup.c **** /* ssd1306 2 */
 405:u8g2_lib/u8g2_d_setup.c **** void u8g2_Setup_ssd1306_72x40_er_2(u8g2_t *u8g2, const u8g2_cb_t *rotation, u8x8_msg_cb byte_cb, u8
 406:u8g2_lib/u8g2_d_setup.c **** {
 2926              		.loc 1 406 0
 2927              		.cfi_startproc
 2928              		@ args = 0, pretend = 0, frame = 8
 2929              		@ frame_needed = 0, uses_anonymous_args = 0
 2930              	.LVL414:
 2931 0000 30B5     		push	{r4, r5, lr}
 2932              	.LCFI138:
 2933              		.cfi_def_cfa_offset 12
 2934              		.cfi_offset 4, -12
 2935              		.cfi_offset 5, -8
 2936              		.cfi_offset 14, -4
ARM GAS  C:\Users\master\AppData\Local\Temp\ccmJvhxl.s 			page 58


 2937 0002 85B0     		sub	sp, sp, #20
 2938              	.LCFI139:
 2939              		.cfi_def_cfa_offset 32
 2940 0004 0446     		mov	r4, r0
 2941 0006 0D46     		mov	r5, r1
 407:u8g2_lib/u8g2_d_setup.c ****   uint8_t tile_buf_height;
 408:u8g2_lib/u8g2_d_setup.c ****   uint8_t *buf;
 409:u8g2_lib/u8g2_d_setup.c ****   u8g2_SetupDisplay(u8g2, u8x8_d_ssd1306_72x40_er, u8x8_cad_001, byte_cb, gpio_and_delay_cb);
 2942              		.loc 1 409 0
 2943 0008 0093     		str	r3, [sp]
 2944 000a 1346     		mov	r3, r2
 2945              	.LVL415:
 2946 000c 084A     		ldr	r2, .L187
 2947              	.LVL416:
 2948 000e 0949     		ldr	r1, .L187+4
 2949              	.LVL417:
 2950 0010 FFF7FEFF 		bl	u8x8_Setup
 2951              	.LVL418:
 410:u8g2_lib/u8g2_d_setup.c ****   buf = u8g2_m_9_5_2(&tile_buf_height);
 2952              		.loc 1 410 0
 2953 0014 0DF10F00 		add	r0, sp, #15
 2954 0018 FFF7FEFF 		bl	u8g2_m_9_5_2
 2955              	.LVL419:
 411:u8g2_lib/u8g2_d_setup.c ****   u8g2_SetupBuffer(u8g2, buf, tile_buf_height, u8g2_ll_hvline_vertical_top_lsb, rotation);
 2956              		.loc 1 411 0
 2957 001c 9DF80F20 		ldrb	r2, [sp, #15]	@ zero_extendqisi2
 2958 0020 0095     		str	r5, [sp]
 2959 0022 054B     		ldr	r3, .L187+8
 2960 0024 0146     		mov	r1, r0
 2961 0026 2046     		mov	r0, r4
 2962              	.LVL420:
 2963 0028 FFF7FEFF 		bl	u8g2_SetupBuffer
 2964              	.LVL421:
 412:u8g2_lib/u8g2_d_setup.c **** }
 2965              		.loc 1 412 0
 2966 002c 05B0     		add	sp, sp, #20
 2967              	.LCFI140:
 2968              		.cfi_def_cfa_offset 12
 2969              		@ sp needed
 2970 002e 30BD     		pop	{r4, r5, pc}
 2971              	.LVL422:
 2972              	.L188:
 2973              		.align	2
 2974              	.L187:
 2975 0030 00000000 		.word	u8x8_cad_001
 2976 0034 00000000 		.word	u8x8_d_ssd1306_72x40_er
 2977 0038 00000000 		.word	u8g2_ll_hvline_vertical_top_lsb
 2978              		.cfi_endproc
 2979              	.LFE46:
 2981              		.section	.text.u8g2_Setup_ssd1306_72x40_er_f,"ax",%progbits
 2982              		.align	2
 2983              		.global	u8g2_Setup_ssd1306_72x40_er_f
 2984              		.thumb
 2985              		.thumb_func
 2987              	u8g2_Setup_ssd1306_72x40_er_f:
 2988              	.LFB47:
 413:u8g2_lib/u8g2_d_setup.c **** /* ssd1306 f */
ARM GAS  C:\Users\master\AppData\Local\Temp\ccmJvhxl.s 			page 59


 414:u8g2_lib/u8g2_d_setup.c **** void u8g2_Setup_ssd1306_72x40_er_f(u8g2_t *u8g2, const u8g2_cb_t *rotation, u8x8_msg_cb byte_cb, u8
 415:u8g2_lib/u8g2_d_setup.c **** {
 2989              		.loc 1 415 0
 2990              		.cfi_startproc
 2991              		@ args = 0, pretend = 0, frame = 8
 2992              		@ frame_needed = 0, uses_anonymous_args = 0
 2993              	.LVL423:
 2994 0000 30B5     		push	{r4, r5, lr}
 2995              	.LCFI141:
 2996              		.cfi_def_cfa_offset 12
 2997              		.cfi_offset 4, -12
 2998              		.cfi_offset 5, -8
 2999              		.cfi_offset 14, -4
 3000 0002 85B0     		sub	sp, sp, #20
 3001              	.LCFI142:
 3002              		.cfi_def_cfa_offset 32
 3003 0004 0446     		mov	r4, r0
 3004 0006 0D46     		mov	r5, r1
 416:u8g2_lib/u8g2_d_setup.c ****   uint8_t tile_buf_height;
 417:u8g2_lib/u8g2_d_setup.c ****   uint8_t *buf;
 418:u8g2_lib/u8g2_d_setup.c ****   u8g2_SetupDisplay(u8g2, u8x8_d_ssd1306_72x40_er, u8x8_cad_001, byte_cb, gpio_and_delay_cb);
 3005              		.loc 1 418 0
 3006 0008 0093     		str	r3, [sp]
 3007 000a 1346     		mov	r3, r2
 3008              	.LVL424:
 3009 000c 084A     		ldr	r2, .L191
 3010              	.LVL425:
 3011 000e 0949     		ldr	r1, .L191+4
 3012              	.LVL426:
 3013 0010 FFF7FEFF 		bl	u8x8_Setup
 3014              	.LVL427:
 419:u8g2_lib/u8g2_d_setup.c ****   buf = u8g2_m_9_5_f(&tile_buf_height);
 3015              		.loc 1 419 0
 3016 0014 0DF10F00 		add	r0, sp, #15
 3017 0018 FFF7FEFF 		bl	u8g2_m_9_5_f
 3018              	.LVL428:
 420:u8g2_lib/u8g2_d_setup.c ****   u8g2_SetupBuffer(u8g2, buf, tile_buf_height, u8g2_ll_hvline_vertical_top_lsb, rotation);
 3019              		.loc 1 420 0
 3020 001c 9DF80F20 		ldrb	r2, [sp, #15]	@ zero_extendqisi2
 3021 0020 0095     		str	r5, [sp]
 3022 0022 054B     		ldr	r3, .L191+8
 3023 0024 0146     		mov	r1, r0
 3024 0026 2046     		mov	r0, r4
 3025              	.LVL429:
 3026 0028 FFF7FEFF 		bl	u8g2_SetupBuffer
 3027              	.LVL430:
 421:u8g2_lib/u8g2_d_setup.c **** }
 3028              		.loc 1 421 0
 3029 002c 05B0     		add	sp, sp, #20
 3030              	.LCFI143:
 3031              		.cfi_def_cfa_offset 12
 3032              		@ sp needed
 3033 002e 30BD     		pop	{r4, r5, pc}
 3034              	.LVL431:
 3035              	.L192:
 3036              		.align	2
 3037              	.L191:
ARM GAS  C:\Users\master\AppData\Local\Temp\ccmJvhxl.s 			page 60


 3038 0030 00000000 		.word	u8x8_cad_001
 3039 0034 00000000 		.word	u8x8_d_ssd1306_72x40_er
 3040 0038 00000000 		.word	u8g2_ll_hvline_vertical_top_lsb
 3041              		.cfi_endproc
 3042              	.LFE47:
 3044              		.section	.text.u8g2_Setup_ssd1306_i2c_72x40_er_1,"ax",%progbits
 3045              		.align	2
 3046              		.global	u8g2_Setup_ssd1306_i2c_72x40_er_1
 3047              		.thumb
 3048              		.thumb_func
 3050              	u8g2_Setup_ssd1306_i2c_72x40_er_1:
 3051              	.LFB48:
 422:u8g2_lib/u8g2_d_setup.c **** /* ssd1306 */
 423:u8g2_lib/u8g2_d_setup.c **** /* ssd1306 1 */
 424:u8g2_lib/u8g2_d_setup.c **** void u8g2_Setup_ssd1306_i2c_72x40_er_1(u8g2_t *u8g2, const u8g2_cb_t *rotation, u8x8_msg_cb byte_cb
 425:u8g2_lib/u8g2_d_setup.c **** {
 3052              		.loc 1 425 0
 3053              		.cfi_startproc
 3054              		@ args = 0, pretend = 0, frame = 8
 3055              		@ frame_needed = 0, uses_anonymous_args = 0
 3056              	.LVL432:
 3057 0000 30B5     		push	{r4, r5, lr}
 3058              	.LCFI144:
 3059              		.cfi_def_cfa_offset 12
 3060              		.cfi_offset 4, -12
 3061              		.cfi_offset 5, -8
 3062              		.cfi_offset 14, -4
 3063 0002 85B0     		sub	sp, sp, #20
 3064              	.LCFI145:
 3065              		.cfi_def_cfa_offset 32
 3066 0004 0446     		mov	r4, r0
 3067 0006 0D46     		mov	r5, r1
 426:u8g2_lib/u8g2_d_setup.c ****   uint8_t tile_buf_height;
 427:u8g2_lib/u8g2_d_setup.c ****   uint8_t *buf;
 428:u8g2_lib/u8g2_d_setup.c ****   u8g2_SetupDisplay(u8g2, u8x8_d_ssd1306_72x40_er, u8x8_cad_ssd13xx_fast_i2c, byte_cb, gpio_and_del
 3068              		.loc 1 428 0
 3069 0008 0093     		str	r3, [sp]
 3070 000a 1346     		mov	r3, r2
 3071              	.LVL433:
 3072 000c 084A     		ldr	r2, .L195
 3073              	.LVL434:
 3074 000e 0949     		ldr	r1, .L195+4
 3075              	.LVL435:
 3076 0010 FFF7FEFF 		bl	u8x8_Setup
 3077              	.LVL436:
 429:u8g2_lib/u8g2_d_setup.c ****   buf = u8g2_m_9_5_1(&tile_buf_height);
 3078              		.loc 1 429 0
 3079 0014 0DF10F00 		add	r0, sp, #15
 3080 0018 FFF7FEFF 		bl	u8g2_m_9_5_1
 3081              	.LVL437:
 430:u8g2_lib/u8g2_d_setup.c ****   u8g2_SetupBuffer(u8g2, buf, tile_buf_height, u8g2_ll_hvline_vertical_top_lsb, rotation);
 3082              		.loc 1 430 0
 3083 001c 9DF80F20 		ldrb	r2, [sp, #15]	@ zero_extendqisi2
 3084 0020 0095     		str	r5, [sp]
 3085 0022 054B     		ldr	r3, .L195+8
 3086 0024 0146     		mov	r1, r0
 3087 0026 2046     		mov	r0, r4
ARM GAS  C:\Users\master\AppData\Local\Temp\ccmJvhxl.s 			page 61


 3088              	.LVL438:
 3089 0028 FFF7FEFF 		bl	u8g2_SetupBuffer
 3090              	.LVL439:
 431:u8g2_lib/u8g2_d_setup.c **** }
 3091              		.loc 1 431 0
 3092 002c 05B0     		add	sp, sp, #20
 3093              	.LCFI146:
 3094              		.cfi_def_cfa_offset 12
 3095              		@ sp needed
 3096 002e 30BD     		pop	{r4, r5, pc}
 3097              	.LVL440:
 3098              	.L196:
 3099              		.align	2
 3100              	.L195:
 3101 0030 00000000 		.word	u8x8_cad_ssd13xx_fast_i2c
 3102 0034 00000000 		.word	u8x8_d_ssd1306_72x40_er
 3103 0038 00000000 		.word	u8g2_ll_hvline_vertical_top_lsb
 3104              		.cfi_endproc
 3105              	.LFE48:
 3107              		.section	.text.u8g2_Setup_ssd1306_i2c_72x40_er_2,"ax",%progbits
 3108              		.align	2
 3109              		.global	u8g2_Setup_ssd1306_i2c_72x40_er_2
 3110              		.thumb
 3111              		.thumb_func
 3113              	u8g2_Setup_ssd1306_i2c_72x40_er_2:
 3114              	.LFB49:
 432:u8g2_lib/u8g2_d_setup.c **** /* ssd1306 2 */
 433:u8g2_lib/u8g2_d_setup.c **** void u8g2_Setup_ssd1306_i2c_72x40_er_2(u8g2_t *u8g2, const u8g2_cb_t *rotation, u8x8_msg_cb byte_cb
 434:u8g2_lib/u8g2_d_setup.c **** {
 3115              		.loc 1 434 0
 3116              		.cfi_startproc
 3117              		@ args = 0, pretend = 0, frame = 8
 3118              		@ frame_needed = 0, uses_anonymous_args = 0
 3119              	.LVL441:
 3120 0000 30B5     		push	{r4, r5, lr}
 3121              	.LCFI147:
 3122              		.cfi_def_cfa_offset 12
 3123              		.cfi_offset 4, -12
 3124              		.cfi_offset 5, -8
 3125              		.cfi_offset 14, -4
 3126 0002 85B0     		sub	sp, sp, #20
 3127              	.LCFI148:
 3128              		.cfi_def_cfa_offset 32
 3129 0004 0446     		mov	r4, r0
 3130 0006 0D46     		mov	r5, r1
 435:u8g2_lib/u8g2_d_setup.c ****   uint8_t tile_buf_height;
 436:u8g2_lib/u8g2_d_setup.c ****   uint8_t *buf;
 437:u8g2_lib/u8g2_d_setup.c ****   u8g2_SetupDisplay(u8g2, u8x8_d_ssd1306_72x40_er, u8x8_cad_ssd13xx_fast_i2c, byte_cb, gpio_and_del
 3131              		.loc 1 437 0
 3132 0008 0093     		str	r3, [sp]
 3133 000a 1346     		mov	r3, r2
 3134              	.LVL442:
 3135 000c 084A     		ldr	r2, .L199
 3136              	.LVL443:
 3137 000e 0949     		ldr	r1, .L199+4
 3138              	.LVL444:
 3139 0010 FFF7FEFF 		bl	u8x8_Setup
ARM GAS  C:\Users\master\AppData\Local\Temp\ccmJvhxl.s 			page 62


 3140              	.LVL445:
 438:u8g2_lib/u8g2_d_setup.c ****   buf = u8g2_m_9_5_2(&tile_buf_height);
 3141              		.loc 1 438 0
 3142 0014 0DF10F00 		add	r0, sp, #15
 3143 0018 FFF7FEFF 		bl	u8g2_m_9_5_2
 3144              	.LVL446:
 439:u8g2_lib/u8g2_d_setup.c ****   u8g2_SetupBuffer(u8g2, buf, tile_buf_height, u8g2_ll_hvline_vertical_top_lsb, rotation);
 3145              		.loc 1 439 0
 3146 001c 9DF80F20 		ldrb	r2, [sp, #15]	@ zero_extendqisi2
 3147 0020 0095     		str	r5, [sp]
 3148 0022 054B     		ldr	r3, .L199+8
 3149 0024 0146     		mov	r1, r0
 3150 0026 2046     		mov	r0, r4
 3151              	.LVL447:
 3152 0028 FFF7FEFF 		bl	u8g2_SetupBuffer
 3153              	.LVL448:
 440:u8g2_lib/u8g2_d_setup.c **** }
 3154              		.loc 1 440 0
 3155 002c 05B0     		add	sp, sp, #20
 3156              	.LCFI149:
 3157              		.cfi_def_cfa_offset 12
 3158              		@ sp needed
 3159 002e 30BD     		pop	{r4, r5, pc}
 3160              	.LVL449:
 3161              	.L200:
 3162              		.align	2
 3163              	.L199:
 3164 0030 00000000 		.word	u8x8_cad_ssd13xx_fast_i2c
 3165 0034 00000000 		.word	u8x8_d_ssd1306_72x40_er
 3166 0038 00000000 		.word	u8g2_ll_hvline_vertical_top_lsb
 3167              		.cfi_endproc
 3168              	.LFE49:
 3170              		.section	.text.u8g2_Setup_ssd1306_i2c_72x40_er_f,"ax",%progbits
 3171              		.align	2
 3172              		.global	u8g2_Setup_ssd1306_i2c_72x40_er_f
 3173              		.thumb
 3174              		.thumb_func
 3176              	u8g2_Setup_ssd1306_i2c_72x40_er_f:
 3177              	.LFB50:
 441:u8g2_lib/u8g2_d_setup.c **** /* ssd1306 f */
 442:u8g2_lib/u8g2_d_setup.c **** void u8g2_Setup_ssd1306_i2c_72x40_er_f(u8g2_t *u8g2, const u8g2_cb_t *rotation, u8x8_msg_cb byte_cb
 443:u8g2_lib/u8g2_d_setup.c **** {
 3178              		.loc 1 443 0
 3179              		.cfi_startproc
 3180              		@ args = 0, pretend = 0, frame = 8
 3181              		@ frame_needed = 0, uses_anonymous_args = 0
 3182              	.LVL450:
 3183 0000 30B5     		push	{r4, r5, lr}
 3184              	.LCFI150:
 3185              		.cfi_def_cfa_offset 12
 3186              		.cfi_offset 4, -12
 3187              		.cfi_offset 5, -8
 3188              		.cfi_offset 14, -4
 3189 0002 85B0     		sub	sp, sp, #20
 3190              	.LCFI151:
 3191              		.cfi_def_cfa_offset 32
 3192 0004 0446     		mov	r4, r0
ARM GAS  C:\Users\master\AppData\Local\Temp\ccmJvhxl.s 			page 63


 3193 0006 0D46     		mov	r5, r1
 444:u8g2_lib/u8g2_d_setup.c ****   uint8_t tile_buf_height;
 445:u8g2_lib/u8g2_d_setup.c ****   uint8_t *buf;
 446:u8g2_lib/u8g2_d_setup.c ****   u8g2_SetupDisplay(u8g2, u8x8_d_ssd1306_72x40_er, u8x8_cad_ssd13xx_fast_i2c, byte_cb, gpio_and_del
 3194              		.loc 1 446 0
 3195 0008 0093     		str	r3, [sp]
 3196 000a 1346     		mov	r3, r2
 3197              	.LVL451:
 3198 000c 084A     		ldr	r2, .L203
 3199              	.LVL452:
 3200 000e 0949     		ldr	r1, .L203+4
 3201              	.LVL453:
 3202 0010 FFF7FEFF 		bl	u8x8_Setup
 3203              	.LVL454:
 447:u8g2_lib/u8g2_d_setup.c ****   buf = u8g2_m_9_5_f(&tile_buf_height);
 3204              		.loc 1 447 0
 3205 0014 0DF10F00 		add	r0, sp, #15
 3206 0018 FFF7FEFF 		bl	u8g2_m_9_5_f
 3207              	.LVL455:
 448:u8g2_lib/u8g2_d_setup.c ****   u8g2_SetupBuffer(u8g2, buf, tile_buf_height, u8g2_ll_hvline_vertical_top_lsb, rotation);
 3208              		.loc 1 448 0
 3209 001c 9DF80F20 		ldrb	r2, [sp, #15]	@ zero_extendqisi2
 3210 0020 0095     		str	r5, [sp]
 3211 0022 054B     		ldr	r3, .L203+8
 3212 0024 0146     		mov	r1, r0
 3213 0026 2046     		mov	r0, r4
 3214              	.LVL456:
 3215 0028 FFF7FEFF 		bl	u8g2_SetupBuffer
 3216              	.LVL457:
 449:u8g2_lib/u8g2_d_setup.c **** }
 3217              		.loc 1 449 0
 3218 002c 05B0     		add	sp, sp, #20
 3219              	.LCFI152:
 3220              		.cfi_def_cfa_offset 12
 3221              		@ sp needed
 3222 002e 30BD     		pop	{r4, r5, pc}
 3223              	.LVL458:
 3224              	.L204:
 3225              		.align	2
 3226              	.L203:
 3227 0030 00000000 		.word	u8x8_cad_ssd13xx_fast_i2c
 3228 0034 00000000 		.word	u8x8_d_ssd1306_72x40_er
 3229 0038 00000000 		.word	u8g2_ll_hvline_vertical_top_lsb
 3230              		.cfi_endproc
 3231              	.LFE50:
 3233              		.section	.text.u8g2_Setup_sh1106_128x64_noname_1,"ax",%progbits
 3234              		.align	2
 3235              		.global	u8g2_Setup_sh1106_128x64_noname_1
 3236              		.thumb
 3237              		.thumb_func
 3239              	u8g2_Setup_sh1106_128x64_noname_1:
 3240              	.LFB51:
 450:u8g2_lib/u8g2_d_setup.c **** /* sh1106 */
 451:u8g2_lib/u8g2_d_setup.c **** /* sh1106 1 */
 452:u8g2_lib/u8g2_d_setup.c **** void u8g2_Setup_sh1106_128x64_noname_1(u8g2_t *u8g2, const u8g2_cb_t *rotation, u8x8_msg_cb byte_cb
 453:u8g2_lib/u8g2_d_setup.c **** {
 3241              		.loc 1 453 0
ARM GAS  C:\Users\master\AppData\Local\Temp\ccmJvhxl.s 			page 64


 3242              		.cfi_startproc
 3243              		@ args = 0, pretend = 0, frame = 8
 3244              		@ frame_needed = 0, uses_anonymous_args = 0
 3245              	.LVL459:
 3246 0000 30B5     		push	{r4, r5, lr}
 3247              	.LCFI153:
 3248              		.cfi_def_cfa_offset 12
 3249              		.cfi_offset 4, -12
 3250              		.cfi_offset 5, -8
 3251              		.cfi_offset 14, -4
 3252 0002 85B0     		sub	sp, sp, #20
 3253              	.LCFI154:
 3254              		.cfi_def_cfa_offset 32
 3255 0004 0446     		mov	r4, r0
 3256 0006 0D46     		mov	r5, r1
 454:u8g2_lib/u8g2_d_setup.c ****   uint8_t tile_buf_height;
 455:u8g2_lib/u8g2_d_setup.c ****   uint8_t *buf;
 456:u8g2_lib/u8g2_d_setup.c ****   u8g2_SetupDisplay(u8g2, u8x8_d_sh1106_128x64_noname, u8x8_cad_001, byte_cb, gpio_and_delay_cb);
 3257              		.loc 1 456 0
 3258 0008 0093     		str	r3, [sp]
 3259 000a 1346     		mov	r3, r2
 3260              	.LVL460:
 3261 000c 084A     		ldr	r2, .L207
 3262              	.LVL461:
 3263 000e 0949     		ldr	r1, .L207+4
 3264              	.LVL462:
 3265 0010 FFF7FEFF 		bl	u8x8_Setup
 3266              	.LVL463:
 457:u8g2_lib/u8g2_d_setup.c ****   buf = u8g2_m_16_8_1(&tile_buf_height);
 3267              		.loc 1 457 0
 3268 0014 0DF10F00 		add	r0, sp, #15
 3269 0018 FFF7FEFF 		bl	u8g2_m_16_8_1
 3270              	.LVL464:
 458:u8g2_lib/u8g2_d_setup.c ****   u8g2_SetupBuffer(u8g2, buf, tile_buf_height, u8g2_ll_hvline_vertical_top_lsb, rotation);
 3271              		.loc 1 458 0
 3272 001c 9DF80F20 		ldrb	r2, [sp, #15]	@ zero_extendqisi2
 3273 0020 0095     		str	r5, [sp]
 3274 0022 054B     		ldr	r3, .L207+8
 3275 0024 0146     		mov	r1, r0
 3276 0026 2046     		mov	r0, r4
 3277              	.LVL465:
 3278 0028 FFF7FEFF 		bl	u8g2_SetupBuffer
 3279              	.LVL466:
 459:u8g2_lib/u8g2_d_setup.c **** }
 3280              		.loc 1 459 0
 3281 002c 05B0     		add	sp, sp, #20
 3282              	.LCFI155:
 3283              		.cfi_def_cfa_offset 12
 3284              		@ sp needed
 3285 002e 30BD     		pop	{r4, r5, pc}
 3286              	.LVL467:
 3287              	.L208:
 3288              		.align	2
 3289              	.L207:
 3290 0030 00000000 		.word	u8x8_cad_001
 3291 0034 00000000 		.word	u8x8_d_sh1106_128x64_noname
 3292 0038 00000000 		.word	u8g2_ll_hvline_vertical_top_lsb
ARM GAS  C:\Users\master\AppData\Local\Temp\ccmJvhxl.s 			page 65


 3293              		.cfi_endproc
 3294              	.LFE51:
 3296              		.section	.text.u8g2_Setup_sh1106_128x64_vcomh0_1,"ax",%progbits
 3297              		.align	2
 3298              		.global	u8g2_Setup_sh1106_128x64_vcomh0_1
 3299              		.thumb
 3300              		.thumb_func
 3302              	u8g2_Setup_sh1106_128x64_vcomh0_1:
 3303              	.LFB52:
 460:u8g2_lib/u8g2_d_setup.c **** void u8g2_Setup_sh1106_128x64_vcomh0_1(u8g2_t *u8g2, const u8g2_cb_t *rotation, u8x8_msg_cb byte_cb
 461:u8g2_lib/u8g2_d_setup.c **** {
 3304              		.loc 1 461 0
 3305              		.cfi_startproc
 3306              		@ args = 0, pretend = 0, frame = 8
 3307              		@ frame_needed = 0, uses_anonymous_args = 0
 3308              	.LVL468:
 3309 0000 30B5     		push	{r4, r5, lr}
 3310              	.LCFI156:
 3311              		.cfi_def_cfa_offset 12
 3312              		.cfi_offset 4, -12
 3313              		.cfi_offset 5, -8
 3314              		.cfi_offset 14, -4
 3315 0002 85B0     		sub	sp, sp, #20
 3316              	.LCFI157:
 3317              		.cfi_def_cfa_offset 32
 3318 0004 0446     		mov	r4, r0
 3319 0006 0D46     		mov	r5, r1
 462:u8g2_lib/u8g2_d_setup.c ****   uint8_t tile_buf_height;
 463:u8g2_lib/u8g2_d_setup.c ****   uint8_t *buf;
 464:u8g2_lib/u8g2_d_setup.c ****   u8g2_SetupDisplay(u8g2, u8x8_d_sh1106_128x64_vcomh0, u8x8_cad_001, byte_cb, gpio_and_delay_cb);
 3320              		.loc 1 464 0
 3321 0008 0093     		str	r3, [sp]
 3322 000a 1346     		mov	r3, r2
 3323              	.LVL469:
 3324 000c 084A     		ldr	r2, .L211
 3325              	.LVL470:
 3326 000e 0949     		ldr	r1, .L211+4
 3327              	.LVL471:
 3328 0010 FFF7FEFF 		bl	u8x8_Setup
 3329              	.LVL472:
 465:u8g2_lib/u8g2_d_setup.c ****   buf = u8g2_m_16_8_1(&tile_buf_height);
 3330              		.loc 1 465 0
 3331 0014 0DF10F00 		add	r0, sp, #15
 3332 0018 FFF7FEFF 		bl	u8g2_m_16_8_1
 3333              	.LVL473:
 466:u8g2_lib/u8g2_d_setup.c ****   u8g2_SetupBuffer(u8g2, buf, tile_buf_height, u8g2_ll_hvline_vertical_top_lsb, rotation);
 3334              		.loc 1 466 0
 3335 001c 9DF80F20 		ldrb	r2, [sp, #15]	@ zero_extendqisi2
 3336 0020 0095     		str	r5, [sp]
 3337 0022 054B     		ldr	r3, .L211+8
 3338 0024 0146     		mov	r1, r0
 3339 0026 2046     		mov	r0, r4
 3340              	.LVL474:
 3341 0028 FFF7FEFF 		bl	u8g2_SetupBuffer
 3342              	.LVL475:
 467:u8g2_lib/u8g2_d_setup.c **** }
 3343              		.loc 1 467 0
ARM GAS  C:\Users\master\AppData\Local\Temp\ccmJvhxl.s 			page 66


 3344 002c 05B0     		add	sp, sp, #20
 3345              	.LCFI158:
 3346              		.cfi_def_cfa_offset 12
 3347              		@ sp needed
 3348 002e 30BD     		pop	{r4, r5, pc}
 3349              	.LVL476:
 3350              	.L212:
 3351              		.align	2
 3352              	.L211:
 3353 0030 00000000 		.word	u8x8_cad_001
 3354 0034 00000000 		.word	u8x8_d_sh1106_128x64_vcomh0
 3355 0038 00000000 		.word	u8g2_ll_hvline_vertical_top_lsb
 3356              		.cfi_endproc
 3357              	.LFE52:
 3359              		.section	.text.u8g2_Setup_sh1106_128x64_winstar_1,"ax",%progbits
 3360              		.align	2
 3361              		.global	u8g2_Setup_sh1106_128x64_winstar_1
 3362              		.thumb
 3363              		.thumb_func
 3365              	u8g2_Setup_sh1106_128x64_winstar_1:
 3366              	.LFB53:
 468:u8g2_lib/u8g2_d_setup.c **** void u8g2_Setup_sh1106_128x64_winstar_1(u8g2_t *u8g2, const u8g2_cb_t *rotation, u8x8_msg_cb byte_c
 469:u8g2_lib/u8g2_d_setup.c **** {
 3367              		.loc 1 469 0
 3368              		.cfi_startproc
 3369              		@ args = 0, pretend = 0, frame = 8
 3370              		@ frame_needed = 0, uses_anonymous_args = 0
 3371              	.LVL477:
 3372 0000 30B5     		push	{r4, r5, lr}
 3373              	.LCFI159:
 3374              		.cfi_def_cfa_offset 12
 3375              		.cfi_offset 4, -12
 3376              		.cfi_offset 5, -8
 3377              		.cfi_offset 14, -4
 3378 0002 85B0     		sub	sp, sp, #20
 3379              	.LCFI160:
 3380              		.cfi_def_cfa_offset 32
 3381 0004 0446     		mov	r4, r0
 3382 0006 0D46     		mov	r5, r1
 470:u8g2_lib/u8g2_d_setup.c ****   uint8_t tile_buf_height;
 471:u8g2_lib/u8g2_d_setup.c ****   uint8_t *buf;
 472:u8g2_lib/u8g2_d_setup.c ****   u8g2_SetupDisplay(u8g2, u8x8_d_sh1106_128x64_winstar, u8x8_cad_001, byte_cb, gpio_and_delay_cb);
 3383              		.loc 1 472 0
 3384 0008 0093     		str	r3, [sp]
 3385 000a 1346     		mov	r3, r2
 3386              	.LVL478:
 3387 000c 084A     		ldr	r2, .L215
 3388              	.LVL479:
 3389 000e 0949     		ldr	r1, .L215+4
 3390              	.LVL480:
 3391 0010 FFF7FEFF 		bl	u8x8_Setup
 3392              	.LVL481:
 473:u8g2_lib/u8g2_d_setup.c ****   buf = u8g2_m_16_8_1(&tile_buf_height);
 3393              		.loc 1 473 0
 3394 0014 0DF10F00 		add	r0, sp, #15
 3395 0018 FFF7FEFF 		bl	u8g2_m_16_8_1
 3396              	.LVL482:
ARM GAS  C:\Users\master\AppData\Local\Temp\ccmJvhxl.s 			page 67


 474:u8g2_lib/u8g2_d_setup.c ****   u8g2_SetupBuffer(u8g2, buf, tile_buf_height, u8g2_ll_hvline_vertical_top_lsb, rotation);
 3397              		.loc 1 474 0
 3398 001c 9DF80F20 		ldrb	r2, [sp, #15]	@ zero_extendqisi2
 3399 0020 0095     		str	r5, [sp]
 3400 0022 054B     		ldr	r3, .L215+8
 3401 0024 0146     		mov	r1, r0
 3402 0026 2046     		mov	r0, r4
 3403              	.LVL483:
 3404 0028 FFF7FEFF 		bl	u8g2_SetupBuffer
 3405              	.LVL484:
 475:u8g2_lib/u8g2_d_setup.c **** }
 3406              		.loc 1 475 0
 3407 002c 05B0     		add	sp, sp, #20
 3408              	.LCFI161:
 3409              		.cfi_def_cfa_offset 12
 3410              		@ sp needed
 3411 002e 30BD     		pop	{r4, r5, pc}
 3412              	.LVL485:
 3413              	.L216:
 3414              		.align	2
 3415              	.L215:
 3416 0030 00000000 		.word	u8x8_cad_001
 3417 0034 00000000 		.word	u8x8_d_sh1106_128x64_winstar
 3418 0038 00000000 		.word	u8g2_ll_hvline_vertical_top_lsb
 3419              		.cfi_endproc
 3420              	.LFE53:
 3422              		.section	.text.u8g2_Setup_sh1106_128x64_noname_2,"ax",%progbits
 3423              		.align	2
 3424              		.global	u8g2_Setup_sh1106_128x64_noname_2
 3425              		.thumb
 3426              		.thumb_func
 3428              	u8g2_Setup_sh1106_128x64_noname_2:
 3429              	.LFB54:
 476:u8g2_lib/u8g2_d_setup.c **** /* sh1106 2 */
 477:u8g2_lib/u8g2_d_setup.c **** void u8g2_Setup_sh1106_128x64_noname_2(u8g2_t *u8g2, const u8g2_cb_t *rotation, u8x8_msg_cb byte_cb
 478:u8g2_lib/u8g2_d_setup.c **** {
 3430              		.loc 1 478 0
 3431              		.cfi_startproc
 3432              		@ args = 0, pretend = 0, frame = 8
 3433              		@ frame_needed = 0, uses_anonymous_args = 0
 3434              	.LVL486:
 3435 0000 30B5     		push	{r4, r5, lr}
 3436              	.LCFI162:
 3437              		.cfi_def_cfa_offset 12
 3438              		.cfi_offset 4, -12
 3439              		.cfi_offset 5, -8
 3440              		.cfi_offset 14, -4
 3441 0002 85B0     		sub	sp, sp, #20
 3442              	.LCFI163:
 3443              		.cfi_def_cfa_offset 32
 3444 0004 0446     		mov	r4, r0
 3445 0006 0D46     		mov	r5, r1
 479:u8g2_lib/u8g2_d_setup.c ****   uint8_t tile_buf_height;
 480:u8g2_lib/u8g2_d_setup.c ****   uint8_t *buf;
 481:u8g2_lib/u8g2_d_setup.c ****   u8g2_SetupDisplay(u8g2, u8x8_d_sh1106_128x64_noname, u8x8_cad_001, byte_cb, gpio_and_delay_cb);
 3446              		.loc 1 481 0
 3447 0008 0093     		str	r3, [sp]
ARM GAS  C:\Users\master\AppData\Local\Temp\ccmJvhxl.s 			page 68


 3448 000a 1346     		mov	r3, r2
 3449              	.LVL487:
 3450 000c 084A     		ldr	r2, .L219
 3451              	.LVL488:
 3452 000e 0949     		ldr	r1, .L219+4
 3453              	.LVL489:
 3454 0010 FFF7FEFF 		bl	u8x8_Setup
 3455              	.LVL490:
 482:u8g2_lib/u8g2_d_setup.c ****   buf = u8g2_m_16_8_2(&tile_buf_height);
 3456              		.loc 1 482 0
 3457 0014 0DF10F00 		add	r0, sp, #15
 3458 0018 FFF7FEFF 		bl	u8g2_m_16_8_2
 3459              	.LVL491:
 483:u8g2_lib/u8g2_d_setup.c ****   u8g2_SetupBuffer(u8g2, buf, tile_buf_height, u8g2_ll_hvline_vertical_top_lsb, rotation);
 3460              		.loc 1 483 0
 3461 001c 9DF80F20 		ldrb	r2, [sp, #15]	@ zero_extendqisi2
 3462 0020 0095     		str	r5, [sp]
 3463 0022 054B     		ldr	r3, .L219+8
 3464 0024 0146     		mov	r1, r0
 3465 0026 2046     		mov	r0, r4
 3466              	.LVL492:
 3467 0028 FFF7FEFF 		bl	u8g2_SetupBuffer
 3468              	.LVL493:
 484:u8g2_lib/u8g2_d_setup.c **** }
 3469              		.loc 1 484 0
 3470 002c 05B0     		add	sp, sp, #20
 3471              	.LCFI164:
 3472              		.cfi_def_cfa_offset 12
 3473              		@ sp needed
 3474 002e 30BD     		pop	{r4, r5, pc}
 3475              	.LVL494:
 3476              	.L220:
 3477              		.align	2
 3478              	.L219:
 3479 0030 00000000 		.word	u8x8_cad_001
 3480 0034 00000000 		.word	u8x8_d_sh1106_128x64_noname
 3481 0038 00000000 		.word	u8g2_ll_hvline_vertical_top_lsb
 3482              		.cfi_endproc
 3483              	.LFE54:
 3485              		.section	.text.u8g2_Setup_sh1106_128x64_vcomh0_2,"ax",%progbits
 3486              		.align	2
 3487              		.global	u8g2_Setup_sh1106_128x64_vcomh0_2
 3488              		.thumb
 3489              		.thumb_func
 3491              	u8g2_Setup_sh1106_128x64_vcomh0_2:
 3492              	.LFB55:
 485:u8g2_lib/u8g2_d_setup.c **** void u8g2_Setup_sh1106_128x64_vcomh0_2(u8g2_t *u8g2, const u8g2_cb_t *rotation, u8x8_msg_cb byte_cb
 486:u8g2_lib/u8g2_d_setup.c **** {
 3493              		.loc 1 486 0
 3494              		.cfi_startproc
 3495              		@ args = 0, pretend = 0, frame = 8
 3496              		@ frame_needed = 0, uses_anonymous_args = 0
 3497              	.LVL495:
 3498 0000 30B5     		push	{r4, r5, lr}
 3499              	.LCFI165:
 3500              		.cfi_def_cfa_offset 12
 3501              		.cfi_offset 4, -12
ARM GAS  C:\Users\master\AppData\Local\Temp\ccmJvhxl.s 			page 69


 3502              		.cfi_offset 5, -8
 3503              		.cfi_offset 14, -4
 3504 0002 85B0     		sub	sp, sp, #20
 3505              	.LCFI166:
 3506              		.cfi_def_cfa_offset 32
 3507 0004 0446     		mov	r4, r0
 3508 0006 0D46     		mov	r5, r1
 487:u8g2_lib/u8g2_d_setup.c ****   uint8_t tile_buf_height;
 488:u8g2_lib/u8g2_d_setup.c ****   uint8_t *buf;
 489:u8g2_lib/u8g2_d_setup.c ****   u8g2_SetupDisplay(u8g2, u8x8_d_sh1106_128x64_vcomh0, u8x8_cad_001, byte_cb, gpio_and_delay_cb);
 3509              		.loc 1 489 0
 3510 0008 0093     		str	r3, [sp]
 3511 000a 1346     		mov	r3, r2
 3512              	.LVL496:
 3513 000c 084A     		ldr	r2, .L223
 3514              	.LVL497:
 3515 000e 0949     		ldr	r1, .L223+4
 3516              	.LVL498:
 3517 0010 FFF7FEFF 		bl	u8x8_Setup
 3518              	.LVL499:
 490:u8g2_lib/u8g2_d_setup.c ****   buf = u8g2_m_16_8_2(&tile_buf_height);
 3519              		.loc 1 490 0
 3520 0014 0DF10F00 		add	r0, sp, #15
 3521 0018 FFF7FEFF 		bl	u8g2_m_16_8_2
 3522              	.LVL500:
 491:u8g2_lib/u8g2_d_setup.c ****   u8g2_SetupBuffer(u8g2, buf, tile_buf_height, u8g2_ll_hvline_vertical_top_lsb, rotation);
 3523              		.loc 1 491 0
 3524 001c 9DF80F20 		ldrb	r2, [sp, #15]	@ zero_extendqisi2
 3525 0020 0095     		str	r5, [sp]
 3526 0022 054B     		ldr	r3, .L223+8
 3527 0024 0146     		mov	r1, r0
 3528 0026 2046     		mov	r0, r4
 3529              	.LVL501:
 3530 0028 FFF7FEFF 		bl	u8g2_SetupBuffer
 3531              	.LVL502:
 492:u8g2_lib/u8g2_d_setup.c **** }
 3532              		.loc 1 492 0
 3533 002c 05B0     		add	sp, sp, #20
 3534              	.LCFI167:
 3535              		.cfi_def_cfa_offset 12
 3536              		@ sp needed
 3537 002e 30BD     		pop	{r4, r5, pc}
 3538              	.LVL503:
 3539              	.L224:
 3540              		.align	2
 3541              	.L223:
 3542 0030 00000000 		.word	u8x8_cad_001
 3543 0034 00000000 		.word	u8x8_d_sh1106_128x64_vcomh0
 3544 0038 00000000 		.word	u8g2_ll_hvline_vertical_top_lsb
 3545              		.cfi_endproc
 3546              	.LFE55:
 3548              		.section	.text.u8g2_Setup_sh1106_128x64_winstar_2,"ax",%progbits
 3549              		.align	2
 3550              		.global	u8g2_Setup_sh1106_128x64_winstar_2
 3551              		.thumb
 3552              		.thumb_func
 3554              	u8g2_Setup_sh1106_128x64_winstar_2:
ARM GAS  C:\Users\master\AppData\Local\Temp\ccmJvhxl.s 			page 70


 3555              	.LFB56:
 493:u8g2_lib/u8g2_d_setup.c **** void u8g2_Setup_sh1106_128x64_winstar_2(u8g2_t *u8g2, const u8g2_cb_t *rotation, u8x8_msg_cb byte_c
 494:u8g2_lib/u8g2_d_setup.c **** {
 3556              		.loc 1 494 0
 3557              		.cfi_startproc
 3558              		@ args = 0, pretend = 0, frame = 8
 3559              		@ frame_needed = 0, uses_anonymous_args = 0
 3560              	.LVL504:
 3561 0000 30B5     		push	{r4, r5, lr}
 3562              	.LCFI168:
 3563              		.cfi_def_cfa_offset 12
 3564              		.cfi_offset 4, -12
 3565              		.cfi_offset 5, -8
 3566              		.cfi_offset 14, -4
 3567 0002 85B0     		sub	sp, sp, #20
 3568              	.LCFI169:
 3569              		.cfi_def_cfa_offset 32
 3570 0004 0446     		mov	r4, r0
 3571 0006 0D46     		mov	r5, r1
 495:u8g2_lib/u8g2_d_setup.c ****   uint8_t tile_buf_height;
 496:u8g2_lib/u8g2_d_setup.c ****   uint8_t *buf;
 497:u8g2_lib/u8g2_d_setup.c ****   u8g2_SetupDisplay(u8g2, u8x8_d_sh1106_128x64_winstar, u8x8_cad_001, byte_cb, gpio_and_delay_cb);
 3572              		.loc 1 497 0
 3573 0008 0093     		str	r3, [sp]
 3574 000a 1346     		mov	r3, r2
 3575              	.LVL505:
 3576 000c 084A     		ldr	r2, .L227
 3577              	.LVL506:
 3578 000e 0949     		ldr	r1, .L227+4
 3579              	.LVL507:
 3580 0010 FFF7FEFF 		bl	u8x8_Setup
 3581              	.LVL508:
 498:u8g2_lib/u8g2_d_setup.c ****   buf = u8g2_m_16_8_2(&tile_buf_height);
 3582              		.loc 1 498 0
 3583 0014 0DF10F00 		add	r0, sp, #15
 3584 0018 FFF7FEFF 		bl	u8g2_m_16_8_2
 3585              	.LVL509:
 499:u8g2_lib/u8g2_d_setup.c ****   u8g2_SetupBuffer(u8g2, buf, tile_buf_height, u8g2_ll_hvline_vertical_top_lsb, rotation);
 3586              		.loc 1 499 0
 3587 001c 9DF80F20 		ldrb	r2, [sp, #15]	@ zero_extendqisi2
 3588 0020 0095     		str	r5, [sp]
 3589 0022 054B     		ldr	r3, .L227+8
 3590 0024 0146     		mov	r1, r0
 3591 0026 2046     		mov	r0, r4
 3592              	.LVL510:
 3593 0028 FFF7FEFF 		bl	u8g2_SetupBuffer
 3594              	.LVL511:
 500:u8g2_lib/u8g2_d_setup.c **** }
 3595              		.loc 1 500 0
 3596 002c 05B0     		add	sp, sp, #20
 3597              	.LCFI170:
 3598              		.cfi_def_cfa_offset 12
 3599              		@ sp needed
 3600 002e 30BD     		pop	{r4, r5, pc}
 3601              	.LVL512:
 3602              	.L228:
 3603              		.align	2
ARM GAS  C:\Users\master\AppData\Local\Temp\ccmJvhxl.s 			page 71


 3604              	.L227:
 3605 0030 00000000 		.word	u8x8_cad_001
 3606 0034 00000000 		.word	u8x8_d_sh1106_128x64_winstar
 3607 0038 00000000 		.word	u8g2_ll_hvline_vertical_top_lsb
 3608              		.cfi_endproc
 3609              	.LFE56:
 3611              		.section	.text.u8g2_Setup_sh1106_128x64_noname_f,"ax",%progbits
 3612              		.align	2
 3613              		.global	u8g2_Setup_sh1106_128x64_noname_f
 3614              		.thumb
 3615              		.thumb_func
 3617              	u8g2_Setup_sh1106_128x64_noname_f:
 3618              	.LFB57:
 501:u8g2_lib/u8g2_d_setup.c **** /* sh1106 f */
 502:u8g2_lib/u8g2_d_setup.c **** void u8g2_Setup_sh1106_128x64_noname_f(u8g2_t *u8g2, const u8g2_cb_t *rotation, u8x8_msg_cb byte_cb
 503:u8g2_lib/u8g2_d_setup.c **** {
 3619              		.loc 1 503 0
 3620              		.cfi_startproc
 3621              		@ args = 0, pretend = 0, frame = 8
 3622              		@ frame_needed = 0, uses_anonymous_args = 0
 3623              	.LVL513:
 3624 0000 30B5     		push	{r4, r5, lr}
 3625              	.LCFI171:
 3626              		.cfi_def_cfa_offset 12
 3627              		.cfi_offset 4, -12
 3628              		.cfi_offset 5, -8
 3629              		.cfi_offset 14, -4
 3630 0002 85B0     		sub	sp, sp, #20
 3631              	.LCFI172:
 3632              		.cfi_def_cfa_offset 32
 3633 0004 0446     		mov	r4, r0
 3634 0006 0D46     		mov	r5, r1
 504:u8g2_lib/u8g2_d_setup.c ****   uint8_t tile_buf_height;
 505:u8g2_lib/u8g2_d_setup.c ****   uint8_t *buf;
 506:u8g2_lib/u8g2_d_setup.c ****   u8g2_SetupDisplay(u8g2, u8x8_d_sh1106_128x64_noname, u8x8_cad_001, byte_cb, gpio_and_delay_cb);
 3635              		.loc 1 506 0
 3636 0008 0093     		str	r3, [sp]
 3637 000a 1346     		mov	r3, r2
 3638              	.LVL514:
 3639 000c 084A     		ldr	r2, .L231
 3640              	.LVL515:
 3641 000e 0949     		ldr	r1, .L231+4
 3642              	.LVL516:
 3643 0010 FFF7FEFF 		bl	u8x8_Setup
 3644              	.LVL517:
 507:u8g2_lib/u8g2_d_setup.c ****   buf = u8g2_m_16_8_f(&tile_buf_height);
 3645              		.loc 1 507 0
 3646 0014 0DF10F00 		add	r0, sp, #15
 3647 0018 FFF7FEFF 		bl	u8g2_m_16_8_f
 3648              	.LVL518:
 508:u8g2_lib/u8g2_d_setup.c ****   u8g2_SetupBuffer(u8g2, buf, tile_buf_height, u8g2_ll_hvline_vertical_top_lsb, rotation);
 3649              		.loc 1 508 0
 3650 001c 9DF80F20 		ldrb	r2, [sp, #15]	@ zero_extendqisi2
 3651 0020 0095     		str	r5, [sp]
 3652 0022 054B     		ldr	r3, .L231+8
 3653 0024 0146     		mov	r1, r0
 3654 0026 2046     		mov	r0, r4
ARM GAS  C:\Users\master\AppData\Local\Temp\ccmJvhxl.s 			page 72


 3655              	.LVL519:
 3656 0028 FFF7FEFF 		bl	u8g2_SetupBuffer
 3657              	.LVL520:
 509:u8g2_lib/u8g2_d_setup.c **** }
 3658              		.loc 1 509 0
 3659 002c 05B0     		add	sp, sp, #20
 3660              	.LCFI173:
 3661              		.cfi_def_cfa_offset 12
 3662              		@ sp needed
 3663 002e 30BD     		pop	{r4, r5, pc}
 3664              	.LVL521:
 3665              	.L232:
 3666              		.align	2
 3667              	.L231:
 3668 0030 00000000 		.word	u8x8_cad_001
 3669 0034 00000000 		.word	u8x8_d_sh1106_128x64_noname
 3670 0038 00000000 		.word	u8g2_ll_hvline_vertical_top_lsb
 3671              		.cfi_endproc
 3672              	.LFE57:
 3674              		.section	.text.u8g2_Setup_sh1106_128x64_vcomh0_f,"ax",%progbits
 3675              		.align	2
 3676              		.global	u8g2_Setup_sh1106_128x64_vcomh0_f
 3677              		.thumb
 3678              		.thumb_func
 3680              	u8g2_Setup_sh1106_128x64_vcomh0_f:
 3681              	.LFB58:
 510:u8g2_lib/u8g2_d_setup.c **** void u8g2_Setup_sh1106_128x64_vcomh0_f(u8g2_t *u8g2, const u8g2_cb_t *rotation, u8x8_msg_cb byte_cb
 511:u8g2_lib/u8g2_d_setup.c **** {
 3682              		.loc 1 511 0
 3683              		.cfi_startproc
 3684              		@ args = 0, pretend = 0, frame = 8
 3685              		@ frame_needed = 0, uses_anonymous_args = 0
 3686              	.LVL522:
 3687 0000 30B5     		push	{r4, r5, lr}
 3688              	.LCFI174:
 3689              		.cfi_def_cfa_offset 12
 3690              		.cfi_offset 4, -12
 3691              		.cfi_offset 5, -8
 3692              		.cfi_offset 14, -4
 3693 0002 85B0     		sub	sp, sp, #20
 3694              	.LCFI175:
 3695              		.cfi_def_cfa_offset 32
 3696 0004 0446     		mov	r4, r0
 3697 0006 0D46     		mov	r5, r1
 512:u8g2_lib/u8g2_d_setup.c ****   uint8_t tile_buf_height;
 513:u8g2_lib/u8g2_d_setup.c ****   uint8_t *buf;
 514:u8g2_lib/u8g2_d_setup.c ****   u8g2_SetupDisplay(u8g2, u8x8_d_sh1106_128x64_vcomh0, u8x8_cad_001, byte_cb, gpio_and_delay_cb);
 3698              		.loc 1 514 0
 3699 0008 0093     		str	r3, [sp]
 3700 000a 1346     		mov	r3, r2
 3701              	.LVL523:
 3702 000c 084A     		ldr	r2, .L235
 3703              	.LVL524:
 3704 000e 0949     		ldr	r1, .L235+4
 3705              	.LVL525:
 3706 0010 FFF7FEFF 		bl	u8x8_Setup
 3707              	.LVL526:
ARM GAS  C:\Users\master\AppData\Local\Temp\ccmJvhxl.s 			page 73


 515:u8g2_lib/u8g2_d_setup.c ****   buf = u8g2_m_16_8_f(&tile_buf_height);
 3708              		.loc 1 515 0
 3709 0014 0DF10F00 		add	r0, sp, #15
 3710 0018 FFF7FEFF 		bl	u8g2_m_16_8_f
 3711              	.LVL527:
 516:u8g2_lib/u8g2_d_setup.c ****   u8g2_SetupBuffer(u8g2, buf, tile_buf_height, u8g2_ll_hvline_vertical_top_lsb, rotation);
 3712              		.loc 1 516 0
 3713 001c 9DF80F20 		ldrb	r2, [sp, #15]	@ zero_extendqisi2
 3714 0020 0095     		str	r5, [sp]
 3715 0022 054B     		ldr	r3, .L235+8
 3716 0024 0146     		mov	r1, r0
 3717 0026 2046     		mov	r0, r4
 3718              	.LVL528:
 3719 0028 FFF7FEFF 		bl	u8g2_SetupBuffer
 3720              	.LVL529:
 517:u8g2_lib/u8g2_d_setup.c **** }
 3721              		.loc 1 517 0
 3722 002c 05B0     		add	sp, sp, #20
 3723              	.LCFI176:
 3724              		.cfi_def_cfa_offset 12
 3725              		@ sp needed
 3726 002e 30BD     		pop	{r4, r5, pc}
 3727              	.LVL530:
 3728              	.L236:
 3729              		.align	2
 3730              	.L235:
 3731 0030 00000000 		.word	u8x8_cad_001
 3732 0034 00000000 		.word	u8x8_d_sh1106_128x64_vcomh0
 3733 0038 00000000 		.word	u8g2_ll_hvline_vertical_top_lsb
 3734              		.cfi_endproc
 3735              	.LFE58:
 3737              		.section	.text.u8g2_Setup_sh1106_128x64_winstar_f,"ax",%progbits
 3738              		.align	2
 3739              		.global	u8g2_Setup_sh1106_128x64_winstar_f
 3740              		.thumb
 3741              		.thumb_func
 3743              	u8g2_Setup_sh1106_128x64_winstar_f:
 3744              	.LFB59:
 518:u8g2_lib/u8g2_d_setup.c **** void u8g2_Setup_sh1106_128x64_winstar_f(u8g2_t *u8g2, const u8g2_cb_t *rotation, u8x8_msg_cb byte_c
 519:u8g2_lib/u8g2_d_setup.c **** {
 3745              		.loc 1 519 0
 3746              		.cfi_startproc
 3747              		@ args = 0, pretend = 0, frame = 8
 3748              		@ frame_needed = 0, uses_anonymous_args = 0
 3749              	.LVL531:
 3750 0000 30B5     		push	{r4, r5, lr}
 3751              	.LCFI177:
 3752              		.cfi_def_cfa_offset 12
 3753              		.cfi_offset 4, -12
 3754              		.cfi_offset 5, -8
 3755              		.cfi_offset 14, -4
 3756 0002 85B0     		sub	sp, sp, #20
 3757              	.LCFI178:
 3758              		.cfi_def_cfa_offset 32
 3759 0004 0446     		mov	r4, r0
 3760 0006 0D46     		mov	r5, r1
 520:u8g2_lib/u8g2_d_setup.c ****   uint8_t tile_buf_height;
ARM GAS  C:\Users\master\AppData\Local\Temp\ccmJvhxl.s 			page 74


 521:u8g2_lib/u8g2_d_setup.c ****   uint8_t *buf;
 522:u8g2_lib/u8g2_d_setup.c ****   u8g2_SetupDisplay(u8g2, u8x8_d_sh1106_128x64_winstar, u8x8_cad_001, byte_cb, gpio_and_delay_cb);
 3761              		.loc 1 522 0
 3762 0008 0093     		str	r3, [sp]
 3763 000a 1346     		mov	r3, r2
 3764              	.LVL532:
 3765 000c 084A     		ldr	r2, .L239
 3766              	.LVL533:
 3767 000e 0949     		ldr	r1, .L239+4
 3768              	.LVL534:
 3769 0010 FFF7FEFF 		bl	u8x8_Setup
 3770              	.LVL535:
 523:u8g2_lib/u8g2_d_setup.c ****   buf = u8g2_m_16_8_f(&tile_buf_height);
 3771              		.loc 1 523 0
 3772 0014 0DF10F00 		add	r0, sp, #15
 3773 0018 FFF7FEFF 		bl	u8g2_m_16_8_f
 3774              	.LVL536:
 524:u8g2_lib/u8g2_d_setup.c ****   u8g2_SetupBuffer(u8g2, buf, tile_buf_height, u8g2_ll_hvline_vertical_top_lsb, rotation);
 3775              		.loc 1 524 0
 3776 001c 9DF80F20 		ldrb	r2, [sp, #15]	@ zero_extendqisi2
 3777 0020 0095     		str	r5, [sp]
 3778 0022 054B     		ldr	r3, .L239+8
 3779 0024 0146     		mov	r1, r0
 3780 0026 2046     		mov	r0, r4
 3781              	.LVL537:
 3782 0028 FFF7FEFF 		bl	u8g2_SetupBuffer
 3783              	.LVL538:
 525:u8g2_lib/u8g2_d_setup.c **** }
 3784              		.loc 1 525 0
 3785 002c 05B0     		add	sp, sp, #20
 3786              	.LCFI179:
 3787              		.cfi_def_cfa_offset 12
 3788              		@ sp needed
 3789 002e 30BD     		pop	{r4, r5, pc}
 3790              	.LVL539:
 3791              	.L240:
 3792              		.align	2
 3793              	.L239:
 3794 0030 00000000 		.word	u8x8_cad_001
 3795 0034 00000000 		.word	u8x8_d_sh1106_128x64_winstar
 3796 0038 00000000 		.word	u8g2_ll_hvline_vertical_top_lsb
 3797              		.cfi_endproc
 3798              	.LFE59:
 3800              		.section	.text.u8g2_Setup_sh1106_i2c_128x64_noname_1,"ax",%progbits
 3801              		.align	2
 3802              		.global	u8g2_Setup_sh1106_i2c_128x64_noname_1
 3803              		.thumb
 3804              		.thumb_func
 3806              	u8g2_Setup_sh1106_i2c_128x64_noname_1:
 3807              	.LFB60:
 526:u8g2_lib/u8g2_d_setup.c **** /* sh1106 */
 527:u8g2_lib/u8g2_d_setup.c **** /* sh1106 1 */
 528:u8g2_lib/u8g2_d_setup.c **** void u8g2_Setup_sh1106_i2c_128x64_noname_1(u8g2_t *u8g2, const u8g2_cb_t *rotation, u8x8_msg_cb byt
 529:u8g2_lib/u8g2_d_setup.c **** {
 3808              		.loc 1 529 0
 3809              		.cfi_startproc
 3810              		@ args = 0, pretend = 0, frame = 8
ARM GAS  C:\Users\master\AppData\Local\Temp\ccmJvhxl.s 			page 75


 3811              		@ frame_needed = 0, uses_anonymous_args = 0
 3812              	.LVL540:
 3813 0000 30B5     		push	{r4, r5, lr}
 3814              	.LCFI180:
 3815              		.cfi_def_cfa_offset 12
 3816              		.cfi_offset 4, -12
 3817              		.cfi_offset 5, -8
 3818              		.cfi_offset 14, -4
 3819 0002 85B0     		sub	sp, sp, #20
 3820              	.LCFI181:
 3821              		.cfi_def_cfa_offset 32
 3822 0004 0446     		mov	r4, r0
 3823 0006 0D46     		mov	r5, r1
 530:u8g2_lib/u8g2_d_setup.c ****   uint8_t tile_buf_height;
 531:u8g2_lib/u8g2_d_setup.c ****   uint8_t *buf;
 532:u8g2_lib/u8g2_d_setup.c ****   u8g2_SetupDisplay(u8g2, u8x8_d_sh1106_128x64_noname, u8x8_cad_ssd13xx_i2c, byte_cb, gpio_and_dela
 3824              		.loc 1 532 0
 3825 0008 0093     		str	r3, [sp]
 3826 000a 1346     		mov	r3, r2
 3827              	.LVL541:
 3828 000c 084A     		ldr	r2, .L243
 3829              	.LVL542:
 3830 000e 0949     		ldr	r1, .L243+4
 3831              	.LVL543:
 3832 0010 FFF7FEFF 		bl	u8x8_Setup
 3833              	.LVL544:
 533:u8g2_lib/u8g2_d_setup.c ****   buf = u8g2_m_16_8_1(&tile_buf_height);
 3834              		.loc 1 533 0
 3835 0014 0DF10F00 		add	r0, sp, #15
 3836 0018 FFF7FEFF 		bl	u8g2_m_16_8_1
 3837              	.LVL545:
 534:u8g2_lib/u8g2_d_setup.c ****   u8g2_SetupBuffer(u8g2, buf, tile_buf_height, u8g2_ll_hvline_vertical_top_lsb, rotation);
 3838              		.loc 1 534 0
 3839 001c 9DF80F20 		ldrb	r2, [sp, #15]	@ zero_extendqisi2
 3840 0020 0095     		str	r5, [sp]
 3841 0022 054B     		ldr	r3, .L243+8
 3842 0024 0146     		mov	r1, r0
 3843 0026 2046     		mov	r0, r4
 3844              	.LVL546:
 3845 0028 FFF7FEFF 		bl	u8g2_SetupBuffer
 3846              	.LVL547:
 535:u8g2_lib/u8g2_d_setup.c **** }
 3847              		.loc 1 535 0
 3848 002c 05B0     		add	sp, sp, #20
 3849              	.LCFI182:
 3850              		.cfi_def_cfa_offset 12
 3851              		@ sp needed
 3852 002e 30BD     		pop	{r4, r5, pc}
 3853              	.LVL548:
 3854              	.L244:
 3855              		.align	2
 3856              	.L243:
 3857 0030 00000000 		.word	u8x8_cad_ssd13xx_i2c
 3858 0034 00000000 		.word	u8x8_d_sh1106_128x64_noname
 3859 0038 00000000 		.word	u8g2_ll_hvline_vertical_top_lsb
 3860              		.cfi_endproc
 3861              	.LFE60:
ARM GAS  C:\Users\master\AppData\Local\Temp\ccmJvhxl.s 			page 76


 3863              		.section	.text.u8g2_Setup_sh1106_i2c_128x64_vcomh0_1,"ax",%progbits
 3864              		.align	2
 3865              		.global	u8g2_Setup_sh1106_i2c_128x64_vcomh0_1
 3866              		.thumb
 3867              		.thumb_func
 3869              	u8g2_Setup_sh1106_i2c_128x64_vcomh0_1:
 3870              	.LFB61:
 536:u8g2_lib/u8g2_d_setup.c **** void u8g2_Setup_sh1106_i2c_128x64_vcomh0_1(u8g2_t *u8g2, const u8g2_cb_t *rotation, u8x8_msg_cb byt
 537:u8g2_lib/u8g2_d_setup.c **** {
 3871              		.loc 1 537 0
 3872              		.cfi_startproc
 3873              		@ args = 0, pretend = 0, frame = 8
 3874              		@ frame_needed = 0, uses_anonymous_args = 0
 3875              	.LVL549:
 3876 0000 30B5     		push	{r4, r5, lr}
 3877              	.LCFI183:
 3878              		.cfi_def_cfa_offset 12
 3879              		.cfi_offset 4, -12
 3880              		.cfi_offset 5, -8
 3881              		.cfi_offset 14, -4
 3882 0002 85B0     		sub	sp, sp, #20
 3883              	.LCFI184:
 3884              		.cfi_def_cfa_offset 32
 3885 0004 0446     		mov	r4, r0
 3886 0006 0D46     		mov	r5, r1
 538:u8g2_lib/u8g2_d_setup.c ****   uint8_t tile_buf_height;
 539:u8g2_lib/u8g2_d_setup.c ****   uint8_t *buf;
 540:u8g2_lib/u8g2_d_setup.c ****   u8g2_SetupDisplay(u8g2, u8x8_d_sh1106_128x64_vcomh0, u8x8_cad_ssd13xx_i2c, byte_cb, gpio_and_dela
 3887              		.loc 1 540 0
 3888 0008 0093     		str	r3, [sp]
 3889 000a 1346     		mov	r3, r2
 3890              	.LVL550:
 3891 000c 084A     		ldr	r2, .L247
 3892              	.LVL551:
 3893 000e 0949     		ldr	r1, .L247+4
 3894              	.LVL552:
 3895 0010 FFF7FEFF 		bl	u8x8_Setup
 3896              	.LVL553:
 541:u8g2_lib/u8g2_d_setup.c ****   buf = u8g2_m_16_8_1(&tile_buf_height);
 3897              		.loc 1 541 0
 3898 0014 0DF10F00 		add	r0, sp, #15
 3899 0018 FFF7FEFF 		bl	u8g2_m_16_8_1
 3900              	.LVL554:
 542:u8g2_lib/u8g2_d_setup.c ****   u8g2_SetupBuffer(u8g2, buf, tile_buf_height, u8g2_ll_hvline_vertical_top_lsb, rotation);
 3901              		.loc 1 542 0
 3902 001c 9DF80F20 		ldrb	r2, [sp, #15]	@ zero_extendqisi2
 3903 0020 0095     		str	r5, [sp]
 3904 0022 054B     		ldr	r3, .L247+8
 3905 0024 0146     		mov	r1, r0
 3906 0026 2046     		mov	r0, r4
 3907              	.LVL555:
 3908 0028 FFF7FEFF 		bl	u8g2_SetupBuffer
 3909              	.LVL556:
 543:u8g2_lib/u8g2_d_setup.c **** }
 3910              		.loc 1 543 0
 3911 002c 05B0     		add	sp, sp, #20
 3912              	.LCFI185:
ARM GAS  C:\Users\master\AppData\Local\Temp\ccmJvhxl.s 			page 77


 3913              		.cfi_def_cfa_offset 12
 3914              		@ sp needed
 3915 002e 30BD     		pop	{r4, r5, pc}
 3916              	.LVL557:
 3917              	.L248:
 3918              		.align	2
 3919              	.L247:
 3920 0030 00000000 		.word	u8x8_cad_ssd13xx_i2c
 3921 0034 00000000 		.word	u8x8_d_sh1106_128x64_vcomh0
 3922 0038 00000000 		.word	u8g2_ll_hvline_vertical_top_lsb
 3923              		.cfi_endproc
 3924              	.LFE61:
 3926              		.section	.text.u8g2_Setup_sh1106_i2c_128x64_winstar_1,"ax",%progbits
 3927              		.align	2
 3928              		.global	u8g2_Setup_sh1106_i2c_128x64_winstar_1
 3929              		.thumb
 3930              		.thumb_func
 3932              	u8g2_Setup_sh1106_i2c_128x64_winstar_1:
 3933              	.LFB62:
 544:u8g2_lib/u8g2_d_setup.c **** void u8g2_Setup_sh1106_i2c_128x64_winstar_1(u8g2_t *u8g2, const u8g2_cb_t *rotation, u8x8_msg_cb by
 545:u8g2_lib/u8g2_d_setup.c **** {
 3934              		.loc 1 545 0
 3935              		.cfi_startproc
 3936              		@ args = 0, pretend = 0, frame = 8
 3937              		@ frame_needed = 0, uses_anonymous_args = 0
 3938              	.LVL558:
 3939 0000 30B5     		push	{r4, r5, lr}
 3940              	.LCFI186:
 3941              		.cfi_def_cfa_offset 12
 3942              		.cfi_offset 4, -12
 3943              		.cfi_offset 5, -8
 3944              		.cfi_offset 14, -4
 3945 0002 85B0     		sub	sp, sp, #20
 3946              	.LCFI187:
 3947              		.cfi_def_cfa_offset 32
 3948 0004 0446     		mov	r4, r0
 3949 0006 0D46     		mov	r5, r1
 546:u8g2_lib/u8g2_d_setup.c ****   uint8_t tile_buf_height;
 547:u8g2_lib/u8g2_d_setup.c ****   uint8_t *buf;
 548:u8g2_lib/u8g2_d_setup.c ****   u8g2_SetupDisplay(u8g2, u8x8_d_sh1106_128x64_winstar, u8x8_cad_ssd13xx_i2c, byte_cb, gpio_and_del
 3950              		.loc 1 548 0
 3951 0008 0093     		str	r3, [sp]
 3952 000a 1346     		mov	r3, r2
 3953              	.LVL559:
 3954 000c 084A     		ldr	r2, .L251
 3955              	.LVL560:
 3956 000e 0949     		ldr	r1, .L251+4
 3957              	.LVL561:
 3958 0010 FFF7FEFF 		bl	u8x8_Setup
 3959              	.LVL562:
 549:u8g2_lib/u8g2_d_setup.c ****   buf = u8g2_m_16_8_1(&tile_buf_height);
 3960              		.loc 1 549 0
 3961 0014 0DF10F00 		add	r0, sp, #15
 3962 0018 FFF7FEFF 		bl	u8g2_m_16_8_1
 3963              	.LVL563:
 550:u8g2_lib/u8g2_d_setup.c ****   u8g2_SetupBuffer(u8g2, buf, tile_buf_height, u8g2_ll_hvline_vertical_top_lsb, rotation);
 3964              		.loc 1 550 0
ARM GAS  C:\Users\master\AppData\Local\Temp\ccmJvhxl.s 			page 78


 3965 001c 9DF80F20 		ldrb	r2, [sp, #15]	@ zero_extendqisi2
 3966 0020 0095     		str	r5, [sp]
 3967 0022 054B     		ldr	r3, .L251+8
 3968 0024 0146     		mov	r1, r0
 3969 0026 2046     		mov	r0, r4
 3970              	.LVL564:
 3971 0028 FFF7FEFF 		bl	u8g2_SetupBuffer
 3972              	.LVL565:
 551:u8g2_lib/u8g2_d_setup.c **** }
 3973              		.loc 1 551 0
 3974 002c 05B0     		add	sp, sp, #20
 3975              	.LCFI188:
 3976              		.cfi_def_cfa_offset 12
 3977              		@ sp needed
 3978 002e 30BD     		pop	{r4, r5, pc}
 3979              	.LVL566:
 3980              	.L252:
 3981              		.align	2
 3982              	.L251:
 3983 0030 00000000 		.word	u8x8_cad_ssd13xx_i2c
 3984 0034 00000000 		.word	u8x8_d_sh1106_128x64_winstar
 3985 0038 00000000 		.word	u8g2_ll_hvline_vertical_top_lsb
 3986              		.cfi_endproc
 3987              	.LFE62:
 3989              		.section	.text.u8g2_Setup_sh1106_i2c_128x64_noname_2,"ax",%progbits
 3990              		.align	2
 3991              		.global	u8g2_Setup_sh1106_i2c_128x64_noname_2
 3992              		.thumb
 3993              		.thumb_func
 3995              	u8g2_Setup_sh1106_i2c_128x64_noname_2:
 3996              	.LFB63:
 552:u8g2_lib/u8g2_d_setup.c **** /* sh1106 2 */
 553:u8g2_lib/u8g2_d_setup.c **** void u8g2_Setup_sh1106_i2c_128x64_noname_2(u8g2_t *u8g2, const u8g2_cb_t *rotation, u8x8_msg_cb byt
 554:u8g2_lib/u8g2_d_setup.c **** {
 3997              		.loc 1 554 0
 3998              		.cfi_startproc
 3999              		@ args = 0, pretend = 0, frame = 8
 4000              		@ frame_needed = 0, uses_anonymous_args = 0
 4001              	.LVL567:
 4002 0000 30B5     		push	{r4, r5, lr}
 4003              	.LCFI189:
 4004              		.cfi_def_cfa_offset 12
 4005              		.cfi_offset 4, -12
 4006              		.cfi_offset 5, -8
 4007              		.cfi_offset 14, -4
 4008 0002 85B0     		sub	sp, sp, #20
 4009              	.LCFI190:
 4010              		.cfi_def_cfa_offset 32
 4011 0004 0446     		mov	r4, r0
 4012 0006 0D46     		mov	r5, r1
 555:u8g2_lib/u8g2_d_setup.c ****   uint8_t tile_buf_height;
 556:u8g2_lib/u8g2_d_setup.c ****   uint8_t *buf;
 557:u8g2_lib/u8g2_d_setup.c ****   u8g2_SetupDisplay(u8g2, u8x8_d_sh1106_128x64_noname, u8x8_cad_ssd13xx_i2c, byte_cb, gpio_and_dela
 4013              		.loc 1 557 0
 4014 0008 0093     		str	r3, [sp]
 4015 000a 1346     		mov	r3, r2
 4016              	.LVL568:
ARM GAS  C:\Users\master\AppData\Local\Temp\ccmJvhxl.s 			page 79


 4017 000c 084A     		ldr	r2, .L255
 4018              	.LVL569:
 4019 000e 0949     		ldr	r1, .L255+4
 4020              	.LVL570:
 4021 0010 FFF7FEFF 		bl	u8x8_Setup
 4022              	.LVL571:
 558:u8g2_lib/u8g2_d_setup.c ****   buf = u8g2_m_16_8_2(&tile_buf_height);
 4023              		.loc 1 558 0
 4024 0014 0DF10F00 		add	r0, sp, #15
 4025 0018 FFF7FEFF 		bl	u8g2_m_16_8_2
 4026              	.LVL572:
 559:u8g2_lib/u8g2_d_setup.c ****   u8g2_SetupBuffer(u8g2, buf, tile_buf_height, u8g2_ll_hvline_vertical_top_lsb, rotation);
 4027              		.loc 1 559 0
 4028 001c 9DF80F20 		ldrb	r2, [sp, #15]	@ zero_extendqisi2
 4029 0020 0095     		str	r5, [sp]
 4030 0022 054B     		ldr	r3, .L255+8
 4031 0024 0146     		mov	r1, r0
 4032 0026 2046     		mov	r0, r4
 4033              	.LVL573:
 4034 0028 FFF7FEFF 		bl	u8g2_SetupBuffer
 4035              	.LVL574:
 560:u8g2_lib/u8g2_d_setup.c **** }
 4036              		.loc 1 560 0
 4037 002c 05B0     		add	sp, sp, #20
 4038              	.LCFI191:
 4039              		.cfi_def_cfa_offset 12
 4040              		@ sp needed
 4041 002e 30BD     		pop	{r4, r5, pc}
 4042              	.LVL575:
 4043              	.L256:
 4044              		.align	2
 4045              	.L255:
 4046 0030 00000000 		.word	u8x8_cad_ssd13xx_i2c
 4047 0034 00000000 		.word	u8x8_d_sh1106_128x64_noname
 4048 0038 00000000 		.word	u8g2_ll_hvline_vertical_top_lsb
 4049              		.cfi_endproc
 4050              	.LFE63:
 4052              		.section	.text.u8g2_Setup_sh1106_i2c_128x64_vcomh0_2,"ax",%progbits
 4053              		.align	2
 4054              		.global	u8g2_Setup_sh1106_i2c_128x64_vcomh0_2
 4055              		.thumb
 4056              		.thumb_func
 4058              	u8g2_Setup_sh1106_i2c_128x64_vcomh0_2:
 4059              	.LFB64:
 561:u8g2_lib/u8g2_d_setup.c **** void u8g2_Setup_sh1106_i2c_128x64_vcomh0_2(u8g2_t *u8g2, const u8g2_cb_t *rotation, u8x8_msg_cb byt
 562:u8g2_lib/u8g2_d_setup.c **** {
 4060              		.loc 1 562 0
 4061              		.cfi_startproc
 4062              		@ args = 0, pretend = 0, frame = 8
 4063              		@ frame_needed = 0, uses_anonymous_args = 0
 4064              	.LVL576:
 4065 0000 30B5     		push	{r4, r5, lr}
 4066              	.LCFI192:
 4067              		.cfi_def_cfa_offset 12
 4068              		.cfi_offset 4, -12
 4069              		.cfi_offset 5, -8
 4070              		.cfi_offset 14, -4
ARM GAS  C:\Users\master\AppData\Local\Temp\ccmJvhxl.s 			page 80


 4071 0002 85B0     		sub	sp, sp, #20
 4072              	.LCFI193:
 4073              		.cfi_def_cfa_offset 32
 4074 0004 0446     		mov	r4, r0
 4075 0006 0D46     		mov	r5, r1
 563:u8g2_lib/u8g2_d_setup.c ****   uint8_t tile_buf_height;
 564:u8g2_lib/u8g2_d_setup.c ****   uint8_t *buf;
 565:u8g2_lib/u8g2_d_setup.c ****   u8g2_SetupDisplay(u8g2, u8x8_d_sh1106_128x64_vcomh0, u8x8_cad_ssd13xx_i2c, byte_cb, gpio_and_dela
 4076              		.loc 1 565 0
 4077 0008 0093     		str	r3, [sp]
 4078 000a 1346     		mov	r3, r2
 4079              	.LVL577:
 4080 000c 084A     		ldr	r2, .L259
 4081              	.LVL578:
 4082 000e 0949     		ldr	r1, .L259+4
 4083              	.LVL579:
 4084 0010 FFF7FEFF 		bl	u8x8_Setup
 4085              	.LVL580:
 566:u8g2_lib/u8g2_d_setup.c ****   buf = u8g2_m_16_8_2(&tile_buf_height);
 4086              		.loc 1 566 0
 4087 0014 0DF10F00 		add	r0, sp, #15
 4088 0018 FFF7FEFF 		bl	u8g2_m_16_8_2
 4089              	.LVL581:
 567:u8g2_lib/u8g2_d_setup.c ****   u8g2_SetupBuffer(u8g2, buf, tile_buf_height, u8g2_ll_hvline_vertical_top_lsb, rotation);
 4090              		.loc 1 567 0
 4091 001c 9DF80F20 		ldrb	r2, [sp, #15]	@ zero_extendqisi2
 4092 0020 0095     		str	r5, [sp]
 4093 0022 054B     		ldr	r3, .L259+8
 4094 0024 0146     		mov	r1, r0
 4095 0026 2046     		mov	r0, r4
 4096              	.LVL582:
 4097 0028 FFF7FEFF 		bl	u8g2_SetupBuffer
 4098              	.LVL583:
 568:u8g2_lib/u8g2_d_setup.c **** }
 4099              		.loc 1 568 0
 4100 002c 05B0     		add	sp, sp, #20
 4101              	.LCFI194:
 4102              		.cfi_def_cfa_offset 12
 4103              		@ sp needed
 4104 002e 30BD     		pop	{r4, r5, pc}
 4105              	.LVL584:
 4106              	.L260:
 4107              		.align	2
 4108              	.L259:
 4109 0030 00000000 		.word	u8x8_cad_ssd13xx_i2c
 4110 0034 00000000 		.word	u8x8_d_sh1106_128x64_vcomh0
 4111 0038 00000000 		.word	u8g2_ll_hvline_vertical_top_lsb
 4112              		.cfi_endproc
 4113              	.LFE64:
 4115              		.section	.text.u8g2_Setup_sh1106_i2c_128x64_winstar_2,"ax",%progbits
 4116              		.align	2
 4117              		.global	u8g2_Setup_sh1106_i2c_128x64_winstar_2
 4118              		.thumb
 4119              		.thumb_func
 4121              	u8g2_Setup_sh1106_i2c_128x64_winstar_2:
 4122              	.LFB65:
 569:u8g2_lib/u8g2_d_setup.c **** void u8g2_Setup_sh1106_i2c_128x64_winstar_2(u8g2_t *u8g2, const u8g2_cb_t *rotation, u8x8_msg_cb by
ARM GAS  C:\Users\master\AppData\Local\Temp\ccmJvhxl.s 			page 81


 570:u8g2_lib/u8g2_d_setup.c **** {
 4123              		.loc 1 570 0
 4124              		.cfi_startproc
 4125              		@ args = 0, pretend = 0, frame = 8
 4126              		@ frame_needed = 0, uses_anonymous_args = 0
 4127              	.LVL585:
 4128 0000 30B5     		push	{r4, r5, lr}
 4129              	.LCFI195:
 4130              		.cfi_def_cfa_offset 12
 4131              		.cfi_offset 4, -12
 4132              		.cfi_offset 5, -8
 4133              		.cfi_offset 14, -4
 4134 0002 85B0     		sub	sp, sp, #20
 4135              	.LCFI196:
 4136              		.cfi_def_cfa_offset 32
 4137 0004 0446     		mov	r4, r0
 4138 0006 0D46     		mov	r5, r1
 571:u8g2_lib/u8g2_d_setup.c ****   uint8_t tile_buf_height;
 572:u8g2_lib/u8g2_d_setup.c ****   uint8_t *buf;
 573:u8g2_lib/u8g2_d_setup.c ****   u8g2_SetupDisplay(u8g2, u8x8_d_sh1106_128x64_winstar, u8x8_cad_ssd13xx_i2c, byte_cb, gpio_and_del
 4139              		.loc 1 573 0
 4140 0008 0093     		str	r3, [sp]
 4141 000a 1346     		mov	r3, r2
 4142              	.LVL586:
 4143 000c 084A     		ldr	r2, .L263
 4144              	.LVL587:
 4145 000e 0949     		ldr	r1, .L263+4
 4146              	.LVL588:
 4147 0010 FFF7FEFF 		bl	u8x8_Setup
 4148              	.LVL589:
 574:u8g2_lib/u8g2_d_setup.c ****   buf = u8g2_m_16_8_2(&tile_buf_height);
 4149              		.loc 1 574 0
 4150 0014 0DF10F00 		add	r0, sp, #15
 4151 0018 FFF7FEFF 		bl	u8g2_m_16_8_2
 4152              	.LVL590:
 575:u8g2_lib/u8g2_d_setup.c ****   u8g2_SetupBuffer(u8g2, buf, tile_buf_height, u8g2_ll_hvline_vertical_top_lsb, rotation);
 4153              		.loc 1 575 0
 4154 001c 9DF80F20 		ldrb	r2, [sp, #15]	@ zero_extendqisi2
 4155 0020 0095     		str	r5, [sp]
 4156 0022 054B     		ldr	r3, .L263+8
 4157 0024 0146     		mov	r1, r0
 4158 0026 2046     		mov	r0, r4
 4159              	.LVL591:
 4160 0028 FFF7FEFF 		bl	u8g2_SetupBuffer
 4161              	.LVL592:
 576:u8g2_lib/u8g2_d_setup.c **** }
 4162              		.loc 1 576 0
 4163 002c 05B0     		add	sp, sp, #20
 4164              	.LCFI197:
 4165              		.cfi_def_cfa_offset 12
 4166              		@ sp needed
 4167 002e 30BD     		pop	{r4, r5, pc}
 4168              	.LVL593:
 4169              	.L264:
 4170              		.align	2
 4171              	.L263:
 4172 0030 00000000 		.word	u8x8_cad_ssd13xx_i2c
ARM GAS  C:\Users\master\AppData\Local\Temp\ccmJvhxl.s 			page 82


 4173 0034 00000000 		.word	u8x8_d_sh1106_128x64_winstar
 4174 0038 00000000 		.word	u8g2_ll_hvline_vertical_top_lsb
 4175              		.cfi_endproc
 4176              	.LFE65:
 4178              		.section	.text.u8g2_Setup_sh1106_i2c_128x64_noname_f,"ax",%progbits
 4179              		.align	2
 4180              		.global	u8g2_Setup_sh1106_i2c_128x64_noname_f
 4181              		.thumb
 4182              		.thumb_func
 4184              	u8g2_Setup_sh1106_i2c_128x64_noname_f:
 4185              	.LFB66:
 577:u8g2_lib/u8g2_d_setup.c **** /* sh1106 f */
 578:u8g2_lib/u8g2_d_setup.c **** void u8g2_Setup_sh1106_i2c_128x64_noname_f(u8g2_t *u8g2, const u8g2_cb_t *rotation, u8x8_msg_cb byt
 579:u8g2_lib/u8g2_d_setup.c **** {
 4186              		.loc 1 579 0
 4187              		.cfi_startproc
 4188              		@ args = 0, pretend = 0, frame = 8
 4189              		@ frame_needed = 0, uses_anonymous_args = 0
 4190              	.LVL594:
 4191 0000 30B5     		push	{r4, r5, lr}
 4192              	.LCFI198:
 4193              		.cfi_def_cfa_offset 12
 4194              		.cfi_offset 4, -12
 4195              		.cfi_offset 5, -8
 4196              		.cfi_offset 14, -4
 4197 0002 85B0     		sub	sp, sp, #20
 4198              	.LCFI199:
 4199              		.cfi_def_cfa_offset 32
 4200 0004 0446     		mov	r4, r0
 4201 0006 0D46     		mov	r5, r1
 580:u8g2_lib/u8g2_d_setup.c ****   uint8_t tile_buf_height;
 581:u8g2_lib/u8g2_d_setup.c ****   uint8_t *buf;
 582:u8g2_lib/u8g2_d_setup.c ****   u8g2_SetupDisplay(u8g2, u8x8_d_sh1106_128x64_noname, u8x8_cad_ssd13xx_i2c, byte_cb, gpio_and_dela
 4202              		.loc 1 582 0
 4203 0008 0093     		str	r3, [sp]
 4204 000a 1346     		mov	r3, r2
 4205              	.LVL595:
 4206 000c 084A     		ldr	r2, .L267
 4207              	.LVL596:
 4208 000e 0949     		ldr	r1, .L267+4
 4209              	.LVL597:
 4210 0010 FFF7FEFF 		bl	u8x8_Setup
 4211              	.LVL598:
 583:u8g2_lib/u8g2_d_setup.c ****   buf = u8g2_m_16_8_f(&tile_buf_height);
 4212              		.loc 1 583 0
 4213 0014 0DF10F00 		add	r0, sp, #15
 4214 0018 FFF7FEFF 		bl	u8g2_m_16_8_f
 4215              	.LVL599:
 584:u8g2_lib/u8g2_d_setup.c ****   u8g2_SetupBuffer(u8g2, buf, tile_buf_height, u8g2_ll_hvline_vertical_top_lsb, rotation);
 4216              		.loc 1 584 0
 4217 001c 9DF80F20 		ldrb	r2, [sp, #15]	@ zero_extendqisi2
 4218 0020 0095     		str	r5, [sp]
 4219 0022 054B     		ldr	r3, .L267+8
 4220 0024 0146     		mov	r1, r0
 4221 0026 2046     		mov	r0, r4
 4222              	.LVL600:
 4223 0028 FFF7FEFF 		bl	u8g2_SetupBuffer
ARM GAS  C:\Users\master\AppData\Local\Temp\ccmJvhxl.s 			page 83


 4224              	.LVL601:
 585:u8g2_lib/u8g2_d_setup.c **** }
 4225              		.loc 1 585 0
 4226 002c 05B0     		add	sp, sp, #20
 4227              	.LCFI200:
 4228              		.cfi_def_cfa_offset 12
 4229              		@ sp needed
 4230 002e 30BD     		pop	{r4, r5, pc}
 4231              	.LVL602:
 4232              	.L268:
 4233              		.align	2
 4234              	.L267:
 4235 0030 00000000 		.word	u8x8_cad_ssd13xx_i2c
 4236 0034 00000000 		.word	u8x8_d_sh1106_128x64_noname
 4237 0038 00000000 		.word	u8g2_ll_hvline_vertical_top_lsb
 4238              		.cfi_endproc
 4239              	.LFE66:
 4241              		.section	.text.u8g2_Setup_sh1106_i2c_128x64_vcomh0_f,"ax",%progbits
 4242              		.align	2
 4243              		.global	u8g2_Setup_sh1106_i2c_128x64_vcomh0_f
 4244              		.thumb
 4245              		.thumb_func
 4247              	u8g2_Setup_sh1106_i2c_128x64_vcomh0_f:
 4248              	.LFB67:
 586:u8g2_lib/u8g2_d_setup.c **** void u8g2_Setup_sh1106_i2c_128x64_vcomh0_f(u8g2_t *u8g2, const u8g2_cb_t *rotation, u8x8_msg_cb byt
 587:u8g2_lib/u8g2_d_setup.c **** {
 4249              		.loc 1 587 0
 4250              		.cfi_startproc
 4251              		@ args = 0, pretend = 0, frame = 8
 4252              		@ frame_needed = 0, uses_anonymous_args = 0
 4253              	.LVL603:
 4254 0000 30B5     		push	{r4, r5, lr}
 4255              	.LCFI201:
 4256              		.cfi_def_cfa_offset 12
 4257              		.cfi_offset 4, -12
 4258              		.cfi_offset 5, -8
 4259              		.cfi_offset 14, -4
 4260 0002 85B0     		sub	sp, sp, #20
 4261              	.LCFI202:
 4262              		.cfi_def_cfa_offset 32
 4263 0004 0446     		mov	r4, r0
 4264 0006 0D46     		mov	r5, r1
 588:u8g2_lib/u8g2_d_setup.c ****   uint8_t tile_buf_height;
 589:u8g2_lib/u8g2_d_setup.c ****   uint8_t *buf;
 590:u8g2_lib/u8g2_d_setup.c ****   u8g2_SetupDisplay(u8g2, u8x8_d_sh1106_128x64_vcomh0, u8x8_cad_ssd13xx_i2c, byte_cb, gpio_and_dela
 4265              		.loc 1 590 0
 4266 0008 0093     		str	r3, [sp]
 4267 000a 1346     		mov	r3, r2
 4268              	.LVL604:
 4269 000c 084A     		ldr	r2, .L271
 4270              	.LVL605:
 4271 000e 0949     		ldr	r1, .L271+4
 4272              	.LVL606:
 4273 0010 FFF7FEFF 		bl	u8x8_Setup
 4274              	.LVL607:
 591:u8g2_lib/u8g2_d_setup.c ****   buf = u8g2_m_16_8_f(&tile_buf_height);
 4275              		.loc 1 591 0
ARM GAS  C:\Users\master\AppData\Local\Temp\ccmJvhxl.s 			page 84


 4276 0014 0DF10F00 		add	r0, sp, #15
 4277 0018 FFF7FEFF 		bl	u8g2_m_16_8_f
 4278              	.LVL608:
 592:u8g2_lib/u8g2_d_setup.c ****   u8g2_SetupBuffer(u8g2, buf, tile_buf_height, u8g2_ll_hvline_vertical_top_lsb, rotation);
 4279              		.loc 1 592 0
 4280 001c 9DF80F20 		ldrb	r2, [sp, #15]	@ zero_extendqisi2
 4281 0020 0095     		str	r5, [sp]
 4282 0022 054B     		ldr	r3, .L271+8
 4283 0024 0146     		mov	r1, r0
 4284 0026 2046     		mov	r0, r4
 4285              	.LVL609:
 4286 0028 FFF7FEFF 		bl	u8g2_SetupBuffer
 4287              	.LVL610:
 593:u8g2_lib/u8g2_d_setup.c **** }
 4288              		.loc 1 593 0
 4289 002c 05B0     		add	sp, sp, #20
 4290              	.LCFI203:
 4291              		.cfi_def_cfa_offset 12
 4292              		@ sp needed
 4293 002e 30BD     		pop	{r4, r5, pc}
 4294              	.LVL611:
 4295              	.L272:
 4296              		.align	2
 4297              	.L271:
 4298 0030 00000000 		.word	u8x8_cad_ssd13xx_i2c
 4299 0034 00000000 		.word	u8x8_d_sh1106_128x64_vcomh0
 4300 0038 00000000 		.word	u8g2_ll_hvline_vertical_top_lsb
 4301              		.cfi_endproc
 4302              	.LFE67:
 4304              		.section	.text.u8g2_Setup_sh1106_i2c_128x64_winstar_f,"ax",%progbits
 4305              		.align	2
 4306              		.global	u8g2_Setup_sh1106_i2c_128x64_winstar_f
 4307              		.thumb
 4308              		.thumb_func
 4310              	u8g2_Setup_sh1106_i2c_128x64_winstar_f:
 4311              	.LFB68:
 594:u8g2_lib/u8g2_d_setup.c **** void u8g2_Setup_sh1106_i2c_128x64_winstar_f(u8g2_t *u8g2, const u8g2_cb_t *rotation, u8x8_msg_cb by
 595:u8g2_lib/u8g2_d_setup.c **** {
 4312              		.loc 1 595 0
 4313              		.cfi_startproc
 4314              		@ args = 0, pretend = 0, frame = 8
 4315              		@ frame_needed = 0, uses_anonymous_args = 0
 4316              	.LVL612:
 4317 0000 30B5     		push	{r4, r5, lr}
 4318              	.LCFI204:
 4319              		.cfi_def_cfa_offset 12
 4320              		.cfi_offset 4, -12
 4321              		.cfi_offset 5, -8
 4322              		.cfi_offset 14, -4
 4323 0002 85B0     		sub	sp, sp, #20
 4324              	.LCFI205:
 4325              		.cfi_def_cfa_offset 32
 4326 0004 0446     		mov	r4, r0
 4327 0006 0D46     		mov	r5, r1
 596:u8g2_lib/u8g2_d_setup.c ****   uint8_t tile_buf_height;
 597:u8g2_lib/u8g2_d_setup.c ****   uint8_t *buf;
 598:u8g2_lib/u8g2_d_setup.c ****   u8g2_SetupDisplay(u8g2, u8x8_d_sh1106_128x64_winstar, u8x8_cad_ssd13xx_i2c, byte_cb, gpio_and_del
ARM GAS  C:\Users\master\AppData\Local\Temp\ccmJvhxl.s 			page 85


 4328              		.loc 1 598 0
 4329 0008 0093     		str	r3, [sp]
 4330 000a 1346     		mov	r3, r2
 4331              	.LVL613:
 4332 000c 084A     		ldr	r2, .L275
 4333              	.LVL614:
 4334 000e 0949     		ldr	r1, .L275+4
 4335              	.LVL615:
 4336 0010 FFF7FEFF 		bl	u8x8_Setup
 4337              	.LVL616:
 599:u8g2_lib/u8g2_d_setup.c ****   buf = u8g2_m_16_8_f(&tile_buf_height);
 4338              		.loc 1 599 0
 4339 0014 0DF10F00 		add	r0, sp, #15
 4340 0018 FFF7FEFF 		bl	u8g2_m_16_8_f
 4341              	.LVL617:
 600:u8g2_lib/u8g2_d_setup.c ****   u8g2_SetupBuffer(u8g2, buf, tile_buf_height, u8g2_ll_hvline_vertical_top_lsb, rotation);
 4342              		.loc 1 600 0
 4343 001c 9DF80F20 		ldrb	r2, [sp, #15]	@ zero_extendqisi2
 4344 0020 0095     		str	r5, [sp]
 4345 0022 054B     		ldr	r3, .L275+8
 4346 0024 0146     		mov	r1, r0
 4347 0026 2046     		mov	r0, r4
 4348              	.LVL618:
 4349 0028 FFF7FEFF 		bl	u8g2_SetupBuffer
 4350              	.LVL619:
 601:u8g2_lib/u8g2_d_setup.c **** }
 4351              		.loc 1 601 0
 4352 002c 05B0     		add	sp, sp, #20
 4353              	.LCFI206:
 4354              		.cfi_def_cfa_offset 12
 4355              		@ sp needed
 4356 002e 30BD     		pop	{r4, r5, pc}
 4357              	.LVL620:
 4358              	.L276:
 4359              		.align	2
 4360              	.L275:
 4361 0030 00000000 		.word	u8x8_cad_ssd13xx_i2c
 4362 0034 00000000 		.word	u8x8_d_sh1106_128x64_winstar
 4363 0038 00000000 		.word	u8g2_ll_hvline_vertical_top_lsb
 4364              		.cfi_endproc
 4365              	.LFE68:
 4367              		.section	.text.u8g2_Setup_sh1106_72x40_wise_1,"ax",%progbits
 4368              		.align	2
 4369              		.global	u8g2_Setup_sh1106_72x40_wise_1
 4370              		.thumb
 4371              		.thumb_func
 4373              	u8g2_Setup_sh1106_72x40_wise_1:
 4374              	.LFB69:
 602:u8g2_lib/u8g2_d_setup.c **** /* sh1106 */
 603:u8g2_lib/u8g2_d_setup.c **** /* sh1106 1 */
 604:u8g2_lib/u8g2_d_setup.c **** void u8g2_Setup_sh1106_72x40_wise_1(u8g2_t *u8g2, const u8g2_cb_t *rotation, u8x8_msg_cb byte_cb, u
 605:u8g2_lib/u8g2_d_setup.c **** {
 4375              		.loc 1 605 0
 4376              		.cfi_startproc
 4377              		@ args = 0, pretend = 0, frame = 8
 4378              		@ frame_needed = 0, uses_anonymous_args = 0
 4379              	.LVL621:
ARM GAS  C:\Users\master\AppData\Local\Temp\ccmJvhxl.s 			page 86


 4380 0000 30B5     		push	{r4, r5, lr}
 4381              	.LCFI207:
 4382              		.cfi_def_cfa_offset 12
 4383              		.cfi_offset 4, -12
 4384              		.cfi_offset 5, -8
 4385              		.cfi_offset 14, -4
 4386 0002 85B0     		sub	sp, sp, #20
 4387              	.LCFI208:
 4388              		.cfi_def_cfa_offset 32
 4389 0004 0446     		mov	r4, r0
 4390 0006 0D46     		mov	r5, r1
 606:u8g2_lib/u8g2_d_setup.c ****   uint8_t tile_buf_height;
 607:u8g2_lib/u8g2_d_setup.c ****   uint8_t *buf;
 608:u8g2_lib/u8g2_d_setup.c ****   u8g2_SetupDisplay(u8g2, u8x8_d_sh1106_72x40_wise, u8x8_cad_001, byte_cb, gpio_and_delay_cb);
 4391              		.loc 1 608 0
 4392 0008 0093     		str	r3, [sp]
 4393 000a 1346     		mov	r3, r2
 4394              	.LVL622:
 4395 000c 084A     		ldr	r2, .L279
 4396              	.LVL623:
 4397 000e 0949     		ldr	r1, .L279+4
 4398              	.LVL624:
 4399 0010 FFF7FEFF 		bl	u8x8_Setup
 4400              	.LVL625:
 609:u8g2_lib/u8g2_d_setup.c ****   buf = u8g2_m_9_5_1(&tile_buf_height);
 4401              		.loc 1 609 0
 4402 0014 0DF10F00 		add	r0, sp, #15
 4403 0018 FFF7FEFF 		bl	u8g2_m_9_5_1
 4404              	.LVL626:
 610:u8g2_lib/u8g2_d_setup.c ****   u8g2_SetupBuffer(u8g2, buf, tile_buf_height, u8g2_ll_hvline_vertical_top_lsb, rotation);
 4405              		.loc 1 610 0
 4406 001c 9DF80F20 		ldrb	r2, [sp, #15]	@ zero_extendqisi2
 4407 0020 0095     		str	r5, [sp]
 4408 0022 054B     		ldr	r3, .L279+8
 4409 0024 0146     		mov	r1, r0
 4410 0026 2046     		mov	r0, r4
 4411              	.LVL627:
 4412 0028 FFF7FEFF 		bl	u8g2_SetupBuffer
 4413              	.LVL628:
 611:u8g2_lib/u8g2_d_setup.c **** }
 4414              		.loc 1 611 0
 4415 002c 05B0     		add	sp, sp, #20
 4416              	.LCFI209:
 4417              		.cfi_def_cfa_offset 12
 4418              		@ sp needed
 4419 002e 30BD     		pop	{r4, r5, pc}
 4420              	.LVL629:
 4421              	.L280:
 4422              		.align	2
 4423              	.L279:
 4424 0030 00000000 		.word	u8x8_cad_001
 4425 0034 00000000 		.word	u8x8_d_sh1106_72x40_wise
 4426 0038 00000000 		.word	u8g2_ll_hvline_vertical_top_lsb
 4427              		.cfi_endproc
 4428              	.LFE69:
 4430              		.section	.text.u8g2_Setup_sh1106_72x40_wise_2,"ax",%progbits
 4431              		.align	2
ARM GAS  C:\Users\master\AppData\Local\Temp\ccmJvhxl.s 			page 87


 4432              		.global	u8g2_Setup_sh1106_72x40_wise_2
 4433              		.thumb
 4434              		.thumb_func
 4436              	u8g2_Setup_sh1106_72x40_wise_2:
 4437              	.LFB70:
 612:u8g2_lib/u8g2_d_setup.c **** /* sh1106 2 */
 613:u8g2_lib/u8g2_d_setup.c **** void u8g2_Setup_sh1106_72x40_wise_2(u8g2_t *u8g2, const u8g2_cb_t *rotation, u8x8_msg_cb byte_cb, u
 614:u8g2_lib/u8g2_d_setup.c **** {
 4438              		.loc 1 614 0
 4439              		.cfi_startproc
 4440              		@ args = 0, pretend = 0, frame = 8
 4441              		@ frame_needed = 0, uses_anonymous_args = 0
 4442              	.LVL630:
 4443 0000 30B5     		push	{r4, r5, lr}
 4444              	.LCFI210:
 4445              		.cfi_def_cfa_offset 12
 4446              		.cfi_offset 4, -12
 4447              		.cfi_offset 5, -8
 4448              		.cfi_offset 14, -4
 4449 0002 85B0     		sub	sp, sp, #20
 4450              	.LCFI211:
 4451              		.cfi_def_cfa_offset 32
 4452 0004 0446     		mov	r4, r0
 4453 0006 0D46     		mov	r5, r1
 615:u8g2_lib/u8g2_d_setup.c ****   uint8_t tile_buf_height;
 616:u8g2_lib/u8g2_d_setup.c ****   uint8_t *buf;
 617:u8g2_lib/u8g2_d_setup.c ****   u8g2_SetupDisplay(u8g2, u8x8_d_sh1106_72x40_wise, u8x8_cad_001, byte_cb, gpio_and_delay_cb);
 4454              		.loc 1 617 0
 4455 0008 0093     		str	r3, [sp]
 4456 000a 1346     		mov	r3, r2
 4457              	.LVL631:
 4458 000c 084A     		ldr	r2, .L283
 4459              	.LVL632:
 4460 000e 0949     		ldr	r1, .L283+4
 4461              	.LVL633:
 4462 0010 FFF7FEFF 		bl	u8x8_Setup
 4463              	.LVL634:
 618:u8g2_lib/u8g2_d_setup.c ****   buf = u8g2_m_9_5_2(&tile_buf_height);
 4464              		.loc 1 618 0
 4465 0014 0DF10F00 		add	r0, sp, #15
 4466 0018 FFF7FEFF 		bl	u8g2_m_9_5_2
 4467              	.LVL635:
 619:u8g2_lib/u8g2_d_setup.c ****   u8g2_SetupBuffer(u8g2, buf, tile_buf_height, u8g2_ll_hvline_vertical_top_lsb, rotation);
 4468              		.loc 1 619 0
 4469 001c 9DF80F20 		ldrb	r2, [sp, #15]	@ zero_extendqisi2
 4470 0020 0095     		str	r5, [sp]
 4471 0022 054B     		ldr	r3, .L283+8
 4472 0024 0146     		mov	r1, r0
 4473 0026 2046     		mov	r0, r4
 4474              	.LVL636:
 4475 0028 FFF7FEFF 		bl	u8g2_SetupBuffer
 4476              	.LVL637:
 620:u8g2_lib/u8g2_d_setup.c **** }
 4477              		.loc 1 620 0
 4478 002c 05B0     		add	sp, sp, #20
 4479              	.LCFI212:
 4480              		.cfi_def_cfa_offset 12
ARM GAS  C:\Users\master\AppData\Local\Temp\ccmJvhxl.s 			page 88


 4481              		@ sp needed
 4482 002e 30BD     		pop	{r4, r5, pc}
 4483              	.LVL638:
 4484              	.L284:
 4485              		.align	2
 4486              	.L283:
 4487 0030 00000000 		.word	u8x8_cad_001
 4488 0034 00000000 		.word	u8x8_d_sh1106_72x40_wise
 4489 0038 00000000 		.word	u8g2_ll_hvline_vertical_top_lsb
 4490              		.cfi_endproc
 4491              	.LFE70:
 4493              		.section	.text.u8g2_Setup_sh1106_72x40_wise_f,"ax",%progbits
 4494              		.align	2
 4495              		.global	u8g2_Setup_sh1106_72x40_wise_f
 4496              		.thumb
 4497              		.thumb_func
 4499              	u8g2_Setup_sh1106_72x40_wise_f:
 4500              	.LFB71:
 621:u8g2_lib/u8g2_d_setup.c **** /* sh1106 f */
 622:u8g2_lib/u8g2_d_setup.c **** void u8g2_Setup_sh1106_72x40_wise_f(u8g2_t *u8g2, const u8g2_cb_t *rotation, u8x8_msg_cb byte_cb, u
 623:u8g2_lib/u8g2_d_setup.c **** {
 4501              		.loc 1 623 0
 4502              		.cfi_startproc
 4503              		@ args = 0, pretend = 0, frame = 8
 4504              		@ frame_needed = 0, uses_anonymous_args = 0
 4505              	.LVL639:
 4506 0000 30B5     		push	{r4, r5, lr}
 4507              	.LCFI213:
 4508              		.cfi_def_cfa_offset 12
 4509              		.cfi_offset 4, -12
 4510              		.cfi_offset 5, -8
 4511              		.cfi_offset 14, -4
 4512 0002 85B0     		sub	sp, sp, #20
 4513              	.LCFI214:
 4514              		.cfi_def_cfa_offset 32
 4515 0004 0446     		mov	r4, r0
 4516 0006 0D46     		mov	r5, r1
 624:u8g2_lib/u8g2_d_setup.c ****   uint8_t tile_buf_height;
 625:u8g2_lib/u8g2_d_setup.c ****   uint8_t *buf;
 626:u8g2_lib/u8g2_d_setup.c ****   u8g2_SetupDisplay(u8g2, u8x8_d_sh1106_72x40_wise, u8x8_cad_001, byte_cb, gpio_and_delay_cb);
 4517              		.loc 1 626 0
 4518 0008 0093     		str	r3, [sp]
 4519 000a 1346     		mov	r3, r2
 4520              	.LVL640:
 4521 000c 084A     		ldr	r2, .L287
 4522              	.LVL641:
 4523 000e 0949     		ldr	r1, .L287+4
 4524              	.LVL642:
 4525 0010 FFF7FEFF 		bl	u8x8_Setup
 4526              	.LVL643:
 627:u8g2_lib/u8g2_d_setup.c ****   buf = u8g2_m_9_5_f(&tile_buf_height);
 4527              		.loc 1 627 0
 4528 0014 0DF10F00 		add	r0, sp, #15
 4529 0018 FFF7FEFF 		bl	u8g2_m_9_5_f
 4530              	.LVL644:
 628:u8g2_lib/u8g2_d_setup.c ****   u8g2_SetupBuffer(u8g2, buf, tile_buf_height, u8g2_ll_hvline_vertical_top_lsb, rotation);
 4531              		.loc 1 628 0
ARM GAS  C:\Users\master\AppData\Local\Temp\ccmJvhxl.s 			page 89


 4532 001c 9DF80F20 		ldrb	r2, [sp, #15]	@ zero_extendqisi2
 4533 0020 0095     		str	r5, [sp]
 4534 0022 054B     		ldr	r3, .L287+8
 4535 0024 0146     		mov	r1, r0
 4536 0026 2046     		mov	r0, r4
 4537              	.LVL645:
 4538 0028 FFF7FEFF 		bl	u8g2_SetupBuffer
 4539              	.LVL646:
 629:u8g2_lib/u8g2_d_setup.c **** }
 4540              		.loc 1 629 0
 4541 002c 05B0     		add	sp, sp, #20
 4542              	.LCFI215:
 4543              		.cfi_def_cfa_offset 12
 4544              		@ sp needed
 4545 002e 30BD     		pop	{r4, r5, pc}
 4546              	.LVL647:
 4547              	.L288:
 4548              		.align	2
 4549              	.L287:
 4550 0030 00000000 		.word	u8x8_cad_001
 4551 0034 00000000 		.word	u8x8_d_sh1106_72x40_wise
 4552 0038 00000000 		.word	u8g2_ll_hvline_vertical_top_lsb
 4553              		.cfi_endproc
 4554              	.LFE71:
 4556              		.section	.text.u8g2_Setup_sh1106_i2c_72x40_wise_1,"ax",%progbits
 4557              		.align	2
 4558              		.global	u8g2_Setup_sh1106_i2c_72x40_wise_1
 4559              		.thumb
 4560              		.thumb_func
 4562              	u8g2_Setup_sh1106_i2c_72x40_wise_1:
 4563              	.LFB72:
 630:u8g2_lib/u8g2_d_setup.c **** /* sh1106 */
 631:u8g2_lib/u8g2_d_setup.c **** /* sh1106 1 */
 632:u8g2_lib/u8g2_d_setup.c **** void u8g2_Setup_sh1106_i2c_72x40_wise_1(u8g2_t *u8g2, const u8g2_cb_t *rotation, u8x8_msg_cb byte_c
 633:u8g2_lib/u8g2_d_setup.c **** {
 4564              		.loc 1 633 0
 4565              		.cfi_startproc
 4566              		@ args = 0, pretend = 0, frame = 8
 4567              		@ frame_needed = 0, uses_anonymous_args = 0
 4568              	.LVL648:
 4569 0000 30B5     		push	{r4, r5, lr}
 4570              	.LCFI216:
 4571              		.cfi_def_cfa_offset 12
 4572              		.cfi_offset 4, -12
 4573              		.cfi_offset 5, -8
 4574              		.cfi_offset 14, -4
 4575 0002 85B0     		sub	sp, sp, #20
 4576              	.LCFI217:
 4577              		.cfi_def_cfa_offset 32
 4578 0004 0446     		mov	r4, r0
 4579 0006 0D46     		mov	r5, r1
 634:u8g2_lib/u8g2_d_setup.c ****   uint8_t tile_buf_height;
 635:u8g2_lib/u8g2_d_setup.c ****   uint8_t *buf;
 636:u8g2_lib/u8g2_d_setup.c ****   u8g2_SetupDisplay(u8g2, u8x8_d_sh1106_72x40_wise, u8x8_cad_ssd13xx_i2c, byte_cb, gpio_and_delay_c
 4580              		.loc 1 636 0
 4581 0008 0093     		str	r3, [sp]
 4582 000a 1346     		mov	r3, r2
ARM GAS  C:\Users\master\AppData\Local\Temp\ccmJvhxl.s 			page 90


 4583              	.LVL649:
 4584 000c 084A     		ldr	r2, .L291
 4585              	.LVL650:
 4586 000e 0949     		ldr	r1, .L291+4
 4587              	.LVL651:
 4588 0010 FFF7FEFF 		bl	u8x8_Setup
 4589              	.LVL652:
 637:u8g2_lib/u8g2_d_setup.c ****   buf = u8g2_m_9_5_1(&tile_buf_height);
 4590              		.loc 1 637 0
 4591 0014 0DF10F00 		add	r0, sp, #15
 4592 0018 FFF7FEFF 		bl	u8g2_m_9_5_1
 4593              	.LVL653:
 638:u8g2_lib/u8g2_d_setup.c ****   u8g2_SetupBuffer(u8g2, buf, tile_buf_height, u8g2_ll_hvline_vertical_top_lsb, rotation);
 4594              		.loc 1 638 0
 4595 001c 9DF80F20 		ldrb	r2, [sp, #15]	@ zero_extendqisi2
 4596 0020 0095     		str	r5, [sp]
 4597 0022 054B     		ldr	r3, .L291+8
 4598 0024 0146     		mov	r1, r0
 4599 0026 2046     		mov	r0, r4
 4600              	.LVL654:
 4601 0028 FFF7FEFF 		bl	u8g2_SetupBuffer
 4602              	.LVL655:
 639:u8g2_lib/u8g2_d_setup.c **** }
 4603              		.loc 1 639 0
 4604 002c 05B0     		add	sp, sp, #20
 4605              	.LCFI218:
 4606              		.cfi_def_cfa_offset 12
 4607              		@ sp needed
 4608 002e 30BD     		pop	{r4, r5, pc}
 4609              	.LVL656:
 4610              	.L292:
 4611              		.align	2
 4612              	.L291:
 4613 0030 00000000 		.word	u8x8_cad_ssd13xx_i2c
 4614 0034 00000000 		.word	u8x8_d_sh1106_72x40_wise
 4615 0038 00000000 		.word	u8g2_ll_hvline_vertical_top_lsb
 4616              		.cfi_endproc
 4617              	.LFE72:
 4619              		.section	.text.u8g2_Setup_sh1106_i2c_72x40_wise_2,"ax",%progbits
 4620              		.align	2
 4621              		.global	u8g2_Setup_sh1106_i2c_72x40_wise_2
 4622              		.thumb
 4623              		.thumb_func
 4625              	u8g2_Setup_sh1106_i2c_72x40_wise_2:
 4626              	.LFB73:
 640:u8g2_lib/u8g2_d_setup.c **** /* sh1106 2 */
 641:u8g2_lib/u8g2_d_setup.c **** void u8g2_Setup_sh1106_i2c_72x40_wise_2(u8g2_t *u8g2, const u8g2_cb_t *rotation, u8x8_msg_cb byte_c
 642:u8g2_lib/u8g2_d_setup.c **** {
 4627              		.loc 1 642 0
 4628              		.cfi_startproc
 4629              		@ args = 0, pretend = 0, frame = 8
 4630              		@ frame_needed = 0, uses_anonymous_args = 0
 4631              	.LVL657:
 4632 0000 30B5     		push	{r4, r5, lr}
 4633              	.LCFI219:
 4634              		.cfi_def_cfa_offset 12
 4635              		.cfi_offset 4, -12
ARM GAS  C:\Users\master\AppData\Local\Temp\ccmJvhxl.s 			page 91


 4636              		.cfi_offset 5, -8
 4637              		.cfi_offset 14, -4
 4638 0002 85B0     		sub	sp, sp, #20
 4639              	.LCFI220:
 4640              		.cfi_def_cfa_offset 32
 4641 0004 0446     		mov	r4, r0
 4642 0006 0D46     		mov	r5, r1
 643:u8g2_lib/u8g2_d_setup.c ****   uint8_t tile_buf_height;
 644:u8g2_lib/u8g2_d_setup.c ****   uint8_t *buf;
 645:u8g2_lib/u8g2_d_setup.c ****   u8g2_SetupDisplay(u8g2, u8x8_d_sh1106_72x40_wise, u8x8_cad_ssd13xx_i2c, byte_cb, gpio_and_delay_c
 4643              		.loc 1 645 0
 4644 0008 0093     		str	r3, [sp]
 4645 000a 1346     		mov	r3, r2
 4646              	.LVL658:
 4647 000c 084A     		ldr	r2, .L295
 4648              	.LVL659:
 4649 000e 0949     		ldr	r1, .L295+4
 4650              	.LVL660:
 4651 0010 FFF7FEFF 		bl	u8x8_Setup
 4652              	.LVL661:
 646:u8g2_lib/u8g2_d_setup.c ****   buf = u8g2_m_9_5_2(&tile_buf_height);
 4653              		.loc 1 646 0
 4654 0014 0DF10F00 		add	r0, sp, #15
 4655 0018 FFF7FEFF 		bl	u8g2_m_9_5_2
 4656              	.LVL662:
 647:u8g2_lib/u8g2_d_setup.c ****   u8g2_SetupBuffer(u8g2, buf, tile_buf_height, u8g2_ll_hvline_vertical_top_lsb, rotation);
 4657              		.loc 1 647 0
 4658 001c 9DF80F20 		ldrb	r2, [sp, #15]	@ zero_extendqisi2
 4659 0020 0095     		str	r5, [sp]
 4660 0022 054B     		ldr	r3, .L295+8
 4661 0024 0146     		mov	r1, r0
 4662 0026 2046     		mov	r0, r4
 4663              	.LVL663:
 4664 0028 FFF7FEFF 		bl	u8g2_SetupBuffer
 4665              	.LVL664:
 648:u8g2_lib/u8g2_d_setup.c **** }
 4666              		.loc 1 648 0
 4667 002c 05B0     		add	sp, sp, #20
 4668              	.LCFI221:
 4669              		.cfi_def_cfa_offset 12
 4670              		@ sp needed
 4671 002e 30BD     		pop	{r4, r5, pc}
 4672              	.LVL665:
 4673              	.L296:
 4674              		.align	2
 4675              	.L295:
 4676 0030 00000000 		.word	u8x8_cad_ssd13xx_i2c
 4677 0034 00000000 		.word	u8x8_d_sh1106_72x40_wise
 4678 0038 00000000 		.word	u8g2_ll_hvline_vertical_top_lsb
 4679              		.cfi_endproc
 4680              	.LFE73:
 4682              		.section	.text.u8g2_Setup_sh1106_i2c_72x40_wise_f,"ax",%progbits
 4683              		.align	2
 4684              		.global	u8g2_Setup_sh1106_i2c_72x40_wise_f
 4685              		.thumb
 4686              		.thumb_func
 4688              	u8g2_Setup_sh1106_i2c_72x40_wise_f:
ARM GAS  C:\Users\master\AppData\Local\Temp\ccmJvhxl.s 			page 92


 4689              	.LFB74:
 649:u8g2_lib/u8g2_d_setup.c **** /* sh1106 f */
 650:u8g2_lib/u8g2_d_setup.c **** void u8g2_Setup_sh1106_i2c_72x40_wise_f(u8g2_t *u8g2, const u8g2_cb_t *rotation, u8x8_msg_cb byte_c
 651:u8g2_lib/u8g2_d_setup.c **** {
 4690              		.loc 1 651 0
 4691              		.cfi_startproc
 4692              		@ args = 0, pretend = 0, frame = 8
 4693              		@ frame_needed = 0, uses_anonymous_args = 0
 4694              	.LVL666:
 4695 0000 30B5     		push	{r4, r5, lr}
 4696              	.LCFI222:
 4697              		.cfi_def_cfa_offset 12
 4698              		.cfi_offset 4, -12
 4699              		.cfi_offset 5, -8
 4700              		.cfi_offset 14, -4
 4701 0002 85B0     		sub	sp, sp, #20
 4702              	.LCFI223:
 4703              		.cfi_def_cfa_offset 32
 4704 0004 0446     		mov	r4, r0
 4705 0006 0D46     		mov	r5, r1
 652:u8g2_lib/u8g2_d_setup.c ****   uint8_t tile_buf_height;
 653:u8g2_lib/u8g2_d_setup.c ****   uint8_t *buf;
 654:u8g2_lib/u8g2_d_setup.c ****   u8g2_SetupDisplay(u8g2, u8x8_d_sh1106_72x40_wise, u8x8_cad_ssd13xx_i2c, byte_cb, gpio_and_delay_c
 4706              		.loc 1 654 0
 4707 0008 0093     		str	r3, [sp]
 4708 000a 1346     		mov	r3, r2
 4709              	.LVL667:
 4710 000c 084A     		ldr	r2, .L299
 4711              	.LVL668:
 4712 000e 0949     		ldr	r1, .L299+4
 4713              	.LVL669:
 4714 0010 FFF7FEFF 		bl	u8x8_Setup
 4715              	.LVL670:
 655:u8g2_lib/u8g2_d_setup.c ****   buf = u8g2_m_9_5_f(&tile_buf_height);
 4716              		.loc 1 655 0
 4717 0014 0DF10F00 		add	r0, sp, #15
 4718 0018 FFF7FEFF 		bl	u8g2_m_9_5_f
 4719              	.LVL671:
 656:u8g2_lib/u8g2_d_setup.c ****   u8g2_SetupBuffer(u8g2, buf, tile_buf_height, u8g2_ll_hvline_vertical_top_lsb, rotation);
 4720              		.loc 1 656 0
 4721 001c 9DF80F20 		ldrb	r2, [sp, #15]	@ zero_extendqisi2
 4722 0020 0095     		str	r5, [sp]
 4723 0022 054B     		ldr	r3, .L299+8
 4724 0024 0146     		mov	r1, r0
 4725 0026 2046     		mov	r0, r4
 4726              	.LVL672:
 4727 0028 FFF7FEFF 		bl	u8g2_SetupBuffer
 4728              	.LVL673:
 657:u8g2_lib/u8g2_d_setup.c **** }
 4729              		.loc 1 657 0
 4730 002c 05B0     		add	sp, sp, #20
 4731              	.LCFI224:
 4732              		.cfi_def_cfa_offset 12
 4733              		@ sp needed
 4734 002e 30BD     		pop	{r4, r5, pc}
 4735              	.LVL674:
 4736              	.L300:
ARM GAS  C:\Users\master\AppData\Local\Temp\ccmJvhxl.s 			page 93


 4737              		.align	2
 4738              	.L299:
 4739 0030 00000000 		.word	u8x8_cad_ssd13xx_i2c
 4740 0034 00000000 		.word	u8x8_d_sh1106_72x40_wise
 4741 0038 00000000 		.word	u8g2_ll_hvline_vertical_top_lsb
 4742              		.cfi_endproc
 4743              	.LFE74:
 4745              		.section	.text.u8g2_Setup_sh1106_64x32_1,"ax",%progbits
 4746              		.align	2
 4747              		.global	u8g2_Setup_sh1106_64x32_1
 4748              		.thumb
 4749              		.thumb_func
 4751              	u8g2_Setup_sh1106_64x32_1:
 4752              	.LFB75:
 658:u8g2_lib/u8g2_d_setup.c **** /* sh1106 */
 659:u8g2_lib/u8g2_d_setup.c **** /* sh1106 1 */
 660:u8g2_lib/u8g2_d_setup.c **** void u8g2_Setup_sh1106_64x32_1(u8g2_t *u8g2, const u8g2_cb_t *rotation, u8x8_msg_cb byte_cb, u8x8_m
 661:u8g2_lib/u8g2_d_setup.c **** {
 4753              		.loc 1 661 0
 4754              		.cfi_startproc
 4755              		@ args = 0, pretend = 0, frame = 8
 4756              		@ frame_needed = 0, uses_anonymous_args = 0
 4757              	.LVL675:
 4758 0000 30B5     		push	{r4, r5, lr}
 4759              	.LCFI225:
 4760              		.cfi_def_cfa_offset 12
 4761              		.cfi_offset 4, -12
 4762              		.cfi_offset 5, -8
 4763              		.cfi_offset 14, -4
 4764 0002 85B0     		sub	sp, sp, #20
 4765              	.LCFI226:
 4766              		.cfi_def_cfa_offset 32
 4767 0004 0446     		mov	r4, r0
 4768 0006 0D46     		mov	r5, r1
 662:u8g2_lib/u8g2_d_setup.c ****   uint8_t tile_buf_height;
 663:u8g2_lib/u8g2_d_setup.c ****   uint8_t *buf;
 664:u8g2_lib/u8g2_d_setup.c ****   u8g2_SetupDisplay(u8g2, u8x8_d_sh1106_64x32, u8x8_cad_001, byte_cb, gpio_and_delay_cb);
 4769              		.loc 1 664 0
 4770 0008 0093     		str	r3, [sp]
 4771 000a 1346     		mov	r3, r2
 4772              	.LVL676:
 4773 000c 084A     		ldr	r2, .L303
 4774              	.LVL677:
 4775 000e 0949     		ldr	r1, .L303+4
 4776              	.LVL678:
 4777 0010 FFF7FEFF 		bl	u8x8_Setup
 4778              	.LVL679:
 665:u8g2_lib/u8g2_d_setup.c ****   buf = u8g2_m_8_4_1(&tile_buf_height);
 4779              		.loc 1 665 0
 4780 0014 0DF10F00 		add	r0, sp, #15
 4781 0018 FFF7FEFF 		bl	u8g2_m_8_4_1
 4782              	.LVL680:
 666:u8g2_lib/u8g2_d_setup.c ****   u8g2_SetupBuffer(u8g2, buf, tile_buf_height, u8g2_ll_hvline_vertical_top_lsb, rotation);
 4783              		.loc 1 666 0
 4784 001c 9DF80F20 		ldrb	r2, [sp, #15]	@ zero_extendqisi2
 4785 0020 0095     		str	r5, [sp]
 4786 0022 054B     		ldr	r3, .L303+8
ARM GAS  C:\Users\master\AppData\Local\Temp\ccmJvhxl.s 			page 94


 4787 0024 0146     		mov	r1, r0
 4788 0026 2046     		mov	r0, r4
 4789              	.LVL681:
 4790 0028 FFF7FEFF 		bl	u8g2_SetupBuffer
 4791              	.LVL682:
 667:u8g2_lib/u8g2_d_setup.c **** }
 4792              		.loc 1 667 0
 4793 002c 05B0     		add	sp, sp, #20
 4794              	.LCFI227:
 4795              		.cfi_def_cfa_offset 12
 4796              		@ sp needed
 4797 002e 30BD     		pop	{r4, r5, pc}
 4798              	.LVL683:
 4799              	.L304:
 4800              		.align	2
 4801              	.L303:
 4802 0030 00000000 		.word	u8x8_cad_001
 4803 0034 00000000 		.word	u8x8_d_sh1106_64x32
 4804 0038 00000000 		.word	u8g2_ll_hvline_vertical_top_lsb
 4805              		.cfi_endproc
 4806              	.LFE75:
 4808              		.section	.text.u8g2_Setup_sh1106_64x32_2,"ax",%progbits
 4809              		.align	2
 4810              		.global	u8g2_Setup_sh1106_64x32_2
 4811              		.thumb
 4812              		.thumb_func
 4814              	u8g2_Setup_sh1106_64x32_2:
 4815              	.LFB76:
 668:u8g2_lib/u8g2_d_setup.c **** /* sh1106 2 */
 669:u8g2_lib/u8g2_d_setup.c **** void u8g2_Setup_sh1106_64x32_2(u8g2_t *u8g2, const u8g2_cb_t *rotation, u8x8_msg_cb byte_cb, u8x8_m
 670:u8g2_lib/u8g2_d_setup.c **** {
 4816              		.loc 1 670 0
 4817              		.cfi_startproc
 4818              		@ args = 0, pretend = 0, frame = 8
 4819              		@ frame_needed = 0, uses_anonymous_args = 0
 4820              	.LVL684:
 4821 0000 30B5     		push	{r4, r5, lr}
 4822              	.LCFI228:
 4823              		.cfi_def_cfa_offset 12
 4824              		.cfi_offset 4, -12
 4825              		.cfi_offset 5, -8
 4826              		.cfi_offset 14, -4
 4827 0002 85B0     		sub	sp, sp, #20
 4828              	.LCFI229:
 4829              		.cfi_def_cfa_offset 32
 4830 0004 0446     		mov	r4, r0
 4831 0006 0D46     		mov	r5, r1
 671:u8g2_lib/u8g2_d_setup.c ****   uint8_t tile_buf_height;
 672:u8g2_lib/u8g2_d_setup.c ****   uint8_t *buf;
 673:u8g2_lib/u8g2_d_setup.c ****   u8g2_SetupDisplay(u8g2, u8x8_d_sh1106_64x32, u8x8_cad_001, byte_cb, gpio_and_delay_cb);
 4832              		.loc 1 673 0
 4833 0008 0093     		str	r3, [sp]
 4834 000a 1346     		mov	r3, r2
 4835              	.LVL685:
 4836 000c 084A     		ldr	r2, .L307
 4837              	.LVL686:
 4838 000e 0949     		ldr	r1, .L307+4
ARM GAS  C:\Users\master\AppData\Local\Temp\ccmJvhxl.s 			page 95


 4839              	.LVL687:
 4840 0010 FFF7FEFF 		bl	u8x8_Setup
 4841              	.LVL688:
 674:u8g2_lib/u8g2_d_setup.c ****   buf = u8g2_m_8_4_2(&tile_buf_height);
 4842              		.loc 1 674 0
 4843 0014 0DF10F00 		add	r0, sp, #15
 4844 0018 FFF7FEFF 		bl	u8g2_m_8_4_2
 4845              	.LVL689:
 675:u8g2_lib/u8g2_d_setup.c ****   u8g2_SetupBuffer(u8g2, buf, tile_buf_height, u8g2_ll_hvline_vertical_top_lsb, rotation);
 4846              		.loc 1 675 0
 4847 001c 9DF80F20 		ldrb	r2, [sp, #15]	@ zero_extendqisi2
 4848 0020 0095     		str	r5, [sp]
 4849 0022 054B     		ldr	r3, .L307+8
 4850 0024 0146     		mov	r1, r0
 4851 0026 2046     		mov	r0, r4
 4852              	.LVL690:
 4853 0028 FFF7FEFF 		bl	u8g2_SetupBuffer
 4854              	.LVL691:
 676:u8g2_lib/u8g2_d_setup.c **** }
 4855              		.loc 1 676 0
 4856 002c 05B0     		add	sp, sp, #20
 4857              	.LCFI230:
 4858              		.cfi_def_cfa_offset 12
 4859              		@ sp needed
 4860 002e 30BD     		pop	{r4, r5, pc}
 4861              	.LVL692:
 4862              	.L308:
 4863              		.align	2
 4864              	.L307:
 4865 0030 00000000 		.word	u8x8_cad_001
 4866 0034 00000000 		.word	u8x8_d_sh1106_64x32
 4867 0038 00000000 		.word	u8g2_ll_hvline_vertical_top_lsb
 4868              		.cfi_endproc
 4869              	.LFE76:
 4871              		.section	.text.u8g2_Setup_sh1106_64x32_f,"ax",%progbits
 4872              		.align	2
 4873              		.global	u8g2_Setup_sh1106_64x32_f
 4874              		.thumb
 4875              		.thumb_func
 4877              	u8g2_Setup_sh1106_64x32_f:
 4878              	.LFB77:
 677:u8g2_lib/u8g2_d_setup.c **** /* sh1106 f */
 678:u8g2_lib/u8g2_d_setup.c **** void u8g2_Setup_sh1106_64x32_f(u8g2_t *u8g2, const u8g2_cb_t *rotation, u8x8_msg_cb byte_cb, u8x8_m
 679:u8g2_lib/u8g2_d_setup.c **** {
 4879              		.loc 1 679 0
 4880              		.cfi_startproc
 4881              		@ args = 0, pretend = 0, frame = 8
 4882              		@ frame_needed = 0, uses_anonymous_args = 0
 4883              	.LVL693:
 4884 0000 30B5     		push	{r4, r5, lr}
 4885              	.LCFI231:
 4886              		.cfi_def_cfa_offset 12
 4887              		.cfi_offset 4, -12
 4888              		.cfi_offset 5, -8
 4889              		.cfi_offset 14, -4
 4890 0002 85B0     		sub	sp, sp, #20
 4891              	.LCFI232:
ARM GAS  C:\Users\master\AppData\Local\Temp\ccmJvhxl.s 			page 96


 4892              		.cfi_def_cfa_offset 32
 4893 0004 0446     		mov	r4, r0
 4894 0006 0D46     		mov	r5, r1
 680:u8g2_lib/u8g2_d_setup.c ****   uint8_t tile_buf_height;
 681:u8g2_lib/u8g2_d_setup.c ****   uint8_t *buf;
 682:u8g2_lib/u8g2_d_setup.c ****   u8g2_SetupDisplay(u8g2, u8x8_d_sh1106_64x32, u8x8_cad_001, byte_cb, gpio_and_delay_cb);
 4895              		.loc 1 682 0
 4896 0008 0093     		str	r3, [sp]
 4897 000a 1346     		mov	r3, r2
 4898              	.LVL694:
 4899 000c 084A     		ldr	r2, .L311
 4900              	.LVL695:
 4901 000e 0949     		ldr	r1, .L311+4
 4902              	.LVL696:
 4903 0010 FFF7FEFF 		bl	u8x8_Setup
 4904              	.LVL697:
 683:u8g2_lib/u8g2_d_setup.c ****   buf = u8g2_m_8_4_f(&tile_buf_height);
 4905              		.loc 1 683 0
 4906 0014 0DF10F00 		add	r0, sp, #15
 4907 0018 FFF7FEFF 		bl	u8g2_m_8_4_f
 4908              	.LVL698:
 684:u8g2_lib/u8g2_d_setup.c ****   u8g2_SetupBuffer(u8g2, buf, tile_buf_height, u8g2_ll_hvline_vertical_top_lsb, rotation);
 4909              		.loc 1 684 0
 4910 001c 9DF80F20 		ldrb	r2, [sp, #15]	@ zero_extendqisi2
 4911 0020 0095     		str	r5, [sp]
 4912 0022 054B     		ldr	r3, .L311+8
 4913 0024 0146     		mov	r1, r0
 4914 0026 2046     		mov	r0, r4
 4915              	.LVL699:
 4916 0028 FFF7FEFF 		bl	u8g2_SetupBuffer
 4917              	.LVL700:
 685:u8g2_lib/u8g2_d_setup.c **** }
 4918              		.loc 1 685 0
 4919 002c 05B0     		add	sp, sp, #20
 4920              	.LCFI233:
 4921              		.cfi_def_cfa_offset 12
 4922              		@ sp needed
 4923 002e 30BD     		pop	{r4, r5, pc}
 4924              	.LVL701:
 4925              	.L312:
 4926              		.align	2
 4927              	.L311:
 4928 0030 00000000 		.word	u8x8_cad_001
 4929 0034 00000000 		.word	u8x8_d_sh1106_64x32
 4930 0038 00000000 		.word	u8g2_ll_hvline_vertical_top_lsb
 4931              		.cfi_endproc
 4932              	.LFE77:
 4934              		.section	.text.u8g2_Setup_sh1106_i2c_64x32_1,"ax",%progbits
 4935              		.align	2
 4936              		.global	u8g2_Setup_sh1106_i2c_64x32_1
 4937              		.thumb
 4938              		.thumb_func
 4940              	u8g2_Setup_sh1106_i2c_64x32_1:
 4941              	.LFB78:
 686:u8g2_lib/u8g2_d_setup.c **** /* sh1106 */
 687:u8g2_lib/u8g2_d_setup.c **** /* sh1106 1 */
 688:u8g2_lib/u8g2_d_setup.c **** void u8g2_Setup_sh1106_i2c_64x32_1(u8g2_t *u8g2, const u8g2_cb_t *rotation, u8x8_msg_cb byte_cb, u8
ARM GAS  C:\Users\master\AppData\Local\Temp\ccmJvhxl.s 			page 97


 689:u8g2_lib/u8g2_d_setup.c **** {
 4942              		.loc 1 689 0
 4943              		.cfi_startproc
 4944              		@ args = 0, pretend = 0, frame = 8
 4945              		@ frame_needed = 0, uses_anonymous_args = 0
 4946              	.LVL702:
 4947 0000 30B5     		push	{r4, r5, lr}
 4948              	.LCFI234:
 4949              		.cfi_def_cfa_offset 12
 4950              		.cfi_offset 4, -12
 4951              		.cfi_offset 5, -8
 4952              		.cfi_offset 14, -4
 4953 0002 85B0     		sub	sp, sp, #20
 4954              	.LCFI235:
 4955              		.cfi_def_cfa_offset 32
 4956 0004 0446     		mov	r4, r0
 4957 0006 0D46     		mov	r5, r1
 690:u8g2_lib/u8g2_d_setup.c ****   uint8_t tile_buf_height;
 691:u8g2_lib/u8g2_d_setup.c ****   uint8_t *buf;
 692:u8g2_lib/u8g2_d_setup.c ****   u8g2_SetupDisplay(u8g2, u8x8_d_sh1106_64x32, u8x8_cad_ssd13xx_i2c, byte_cb, gpio_and_delay_cb);
 4958              		.loc 1 692 0
 4959 0008 0093     		str	r3, [sp]
 4960 000a 1346     		mov	r3, r2
 4961              	.LVL703:
 4962 000c 084A     		ldr	r2, .L315
 4963              	.LVL704:
 4964 000e 0949     		ldr	r1, .L315+4
 4965              	.LVL705:
 4966 0010 FFF7FEFF 		bl	u8x8_Setup
 4967              	.LVL706:
 693:u8g2_lib/u8g2_d_setup.c ****   buf = u8g2_m_8_4_1(&tile_buf_height);
 4968              		.loc 1 693 0
 4969 0014 0DF10F00 		add	r0, sp, #15
 4970 0018 FFF7FEFF 		bl	u8g2_m_8_4_1
 4971              	.LVL707:
 694:u8g2_lib/u8g2_d_setup.c ****   u8g2_SetupBuffer(u8g2, buf, tile_buf_height, u8g2_ll_hvline_vertical_top_lsb, rotation);
 4972              		.loc 1 694 0
 4973 001c 9DF80F20 		ldrb	r2, [sp, #15]	@ zero_extendqisi2
 4974 0020 0095     		str	r5, [sp]
 4975 0022 054B     		ldr	r3, .L315+8
 4976 0024 0146     		mov	r1, r0
 4977 0026 2046     		mov	r0, r4
 4978              	.LVL708:
 4979 0028 FFF7FEFF 		bl	u8g2_SetupBuffer
 4980              	.LVL709:
 695:u8g2_lib/u8g2_d_setup.c **** }
 4981              		.loc 1 695 0
 4982 002c 05B0     		add	sp, sp, #20
 4983              	.LCFI236:
 4984              		.cfi_def_cfa_offset 12
 4985              		@ sp needed
 4986 002e 30BD     		pop	{r4, r5, pc}
 4987              	.LVL710:
 4988              	.L316:
 4989              		.align	2
 4990              	.L315:
 4991 0030 00000000 		.word	u8x8_cad_ssd13xx_i2c
ARM GAS  C:\Users\master\AppData\Local\Temp\ccmJvhxl.s 			page 98


 4992 0034 00000000 		.word	u8x8_d_sh1106_64x32
 4993 0038 00000000 		.word	u8g2_ll_hvline_vertical_top_lsb
 4994              		.cfi_endproc
 4995              	.LFE78:
 4997              		.section	.text.u8g2_Setup_sh1106_i2c_64x32_2,"ax",%progbits
 4998              		.align	2
 4999              		.global	u8g2_Setup_sh1106_i2c_64x32_2
 5000              		.thumb
 5001              		.thumb_func
 5003              	u8g2_Setup_sh1106_i2c_64x32_2:
 5004              	.LFB79:
 696:u8g2_lib/u8g2_d_setup.c **** /* sh1106 2 */
 697:u8g2_lib/u8g2_d_setup.c **** void u8g2_Setup_sh1106_i2c_64x32_2(u8g2_t *u8g2, const u8g2_cb_t *rotation, u8x8_msg_cb byte_cb, u8
 698:u8g2_lib/u8g2_d_setup.c **** {
 5005              		.loc 1 698 0
 5006              		.cfi_startproc
 5007              		@ args = 0, pretend = 0, frame = 8
 5008              		@ frame_needed = 0, uses_anonymous_args = 0
 5009              	.LVL711:
 5010 0000 30B5     		push	{r4, r5, lr}
 5011              	.LCFI237:
 5012              		.cfi_def_cfa_offset 12
 5013              		.cfi_offset 4, -12
 5014              		.cfi_offset 5, -8
 5015              		.cfi_offset 14, -4
 5016 0002 85B0     		sub	sp, sp, #20
 5017              	.LCFI238:
 5018              		.cfi_def_cfa_offset 32
 5019 0004 0446     		mov	r4, r0
 5020 0006 0D46     		mov	r5, r1
 699:u8g2_lib/u8g2_d_setup.c ****   uint8_t tile_buf_height;
 700:u8g2_lib/u8g2_d_setup.c ****   uint8_t *buf;
 701:u8g2_lib/u8g2_d_setup.c ****   u8g2_SetupDisplay(u8g2, u8x8_d_sh1106_64x32, u8x8_cad_ssd13xx_i2c, byte_cb, gpio_and_delay_cb);
 5021              		.loc 1 701 0
 5022 0008 0093     		str	r3, [sp]
 5023 000a 1346     		mov	r3, r2
 5024              	.LVL712:
 5025 000c 084A     		ldr	r2, .L319
 5026              	.LVL713:
 5027 000e 0949     		ldr	r1, .L319+4
 5028              	.LVL714:
 5029 0010 FFF7FEFF 		bl	u8x8_Setup
 5030              	.LVL715:
 702:u8g2_lib/u8g2_d_setup.c ****   buf = u8g2_m_8_4_2(&tile_buf_height);
 5031              		.loc 1 702 0
 5032 0014 0DF10F00 		add	r0, sp, #15
 5033 0018 FFF7FEFF 		bl	u8g2_m_8_4_2
 5034              	.LVL716:
 703:u8g2_lib/u8g2_d_setup.c ****   u8g2_SetupBuffer(u8g2, buf, tile_buf_height, u8g2_ll_hvline_vertical_top_lsb, rotation);
 5035              		.loc 1 703 0
 5036 001c 9DF80F20 		ldrb	r2, [sp, #15]	@ zero_extendqisi2
 5037 0020 0095     		str	r5, [sp]
 5038 0022 054B     		ldr	r3, .L319+8
 5039 0024 0146     		mov	r1, r0
 5040 0026 2046     		mov	r0, r4
 5041              	.LVL717:
 5042 0028 FFF7FEFF 		bl	u8g2_SetupBuffer
ARM GAS  C:\Users\master\AppData\Local\Temp\ccmJvhxl.s 			page 99


 5043              	.LVL718:
 704:u8g2_lib/u8g2_d_setup.c **** }
 5044              		.loc 1 704 0
 5045 002c 05B0     		add	sp, sp, #20
 5046              	.LCFI239:
 5047              		.cfi_def_cfa_offset 12
 5048              		@ sp needed
 5049 002e 30BD     		pop	{r4, r5, pc}
 5050              	.LVL719:
 5051              	.L320:
 5052              		.align	2
 5053              	.L319:
 5054 0030 00000000 		.word	u8x8_cad_ssd13xx_i2c
 5055 0034 00000000 		.word	u8x8_d_sh1106_64x32
 5056 0038 00000000 		.word	u8g2_ll_hvline_vertical_top_lsb
 5057              		.cfi_endproc
 5058              	.LFE79:
 5060              		.section	.text.u8g2_Setup_sh1106_i2c_64x32_f,"ax",%progbits
 5061              		.align	2
 5062              		.global	u8g2_Setup_sh1106_i2c_64x32_f
 5063              		.thumb
 5064              		.thumb_func
 5066              	u8g2_Setup_sh1106_i2c_64x32_f:
 5067              	.LFB80:
 705:u8g2_lib/u8g2_d_setup.c **** /* sh1106 f */
 706:u8g2_lib/u8g2_d_setup.c **** void u8g2_Setup_sh1106_i2c_64x32_f(u8g2_t *u8g2, const u8g2_cb_t *rotation, u8x8_msg_cb byte_cb, u8
 707:u8g2_lib/u8g2_d_setup.c **** {
 5068              		.loc 1 707 0
 5069              		.cfi_startproc
 5070              		@ args = 0, pretend = 0, frame = 8
 5071              		@ frame_needed = 0, uses_anonymous_args = 0
 5072              	.LVL720:
 5073 0000 30B5     		push	{r4, r5, lr}
 5074              	.LCFI240:
 5075              		.cfi_def_cfa_offset 12
 5076              		.cfi_offset 4, -12
 5077              		.cfi_offset 5, -8
 5078              		.cfi_offset 14, -4
 5079 0002 85B0     		sub	sp, sp, #20
 5080              	.LCFI241:
 5081              		.cfi_def_cfa_offset 32
 5082 0004 0446     		mov	r4, r0
 5083 0006 0D46     		mov	r5, r1
 708:u8g2_lib/u8g2_d_setup.c ****   uint8_t tile_buf_height;
 709:u8g2_lib/u8g2_d_setup.c ****   uint8_t *buf;
 710:u8g2_lib/u8g2_d_setup.c ****   u8g2_SetupDisplay(u8g2, u8x8_d_sh1106_64x32, u8x8_cad_ssd13xx_i2c, byte_cb, gpio_and_delay_cb);
 5084              		.loc 1 710 0
 5085 0008 0093     		str	r3, [sp]
 5086 000a 1346     		mov	r3, r2
 5087              	.LVL721:
 5088 000c 084A     		ldr	r2, .L323
 5089              	.LVL722:
 5090 000e 0949     		ldr	r1, .L323+4
 5091              	.LVL723:
 5092 0010 FFF7FEFF 		bl	u8x8_Setup
 5093              	.LVL724:
 711:u8g2_lib/u8g2_d_setup.c ****   buf = u8g2_m_8_4_f(&tile_buf_height);
ARM GAS  C:\Users\master\AppData\Local\Temp\ccmJvhxl.s 			page 100


 5094              		.loc 1 711 0
 5095 0014 0DF10F00 		add	r0, sp, #15
 5096 0018 FFF7FEFF 		bl	u8g2_m_8_4_f
 5097              	.LVL725:
 712:u8g2_lib/u8g2_d_setup.c ****   u8g2_SetupBuffer(u8g2, buf, tile_buf_height, u8g2_ll_hvline_vertical_top_lsb, rotation);
 5098              		.loc 1 712 0
 5099 001c 9DF80F20 		ldrb	r2, [sp, #15]	@ zero_extendqisi2
 5100 0020 0095     		str	r5, [sp]
 5101 0022 054B     		ldr	r3, .L323+8
 5102 0024 0146     		mov	r1, r0
 5103 0026 2046     		mov	r0, r4
 5104              	.LVL726:
 5105 0028 FFF7FEFF 		bl	u8g2_SetupBuffer
 5106              	.LVL727:
 713:u8g2_lib/u8g2_d_setup.c **** }
 5107              		.loc 1 713 0
 5108 002c 05B0     		add	sp, sp, #20
 5109              	.LCFI242:
 5110              		.cfi_def_cfa_offset 12
 5111              		@ sp needed
 5112 002e 30BD     		pop	{r4, r5, pc}
 5113              	.LVL728:
 5114              	.L324:
 5115              		.align	2
 5116              	.L323:
 5117 0030 00000000 		.word	u8x8_cad_ssd13xx_i2c
 5118 0034 00000000 		.word	u8x8_d_sh1106_64x32
 5119 0038 00000000 		.word	u8g2_ll_hvline_vertical_top_lsb
 5120              		.cfi_endproc
 5121              	.LFE80:
 5123              		.section	.text.u8g2_Setup_sh1107_64x128_1,"ax",%progbits
 5124              		.align	2
 5125              		.global	u8g2_Setup_sh1107_64x128_1
 5126              		.thumb
 5127              		.thumb_func
 5129              	u8g2_Setup_sh1107_64x128_1:
 5130              	.LFB81:
 714:u8g2_lib/u8g2_d_setup.c **** /* sh1107 */
 715:u8g2_lib/u8g2_d_setup.c **** /* sh1107 1 */
 716:u8g2_lib/u8g2_d_setup.c **** void u8g2_Setup_sh1107_64x128_1(u8g2_t *u8g2, const u8g2_cb_t *rotation, u8x8_msg_cb byte_cb, u8x8_
 717:u8g2_lib/u8g2_d_setup.c **** {
 5131              		.loc 1 717 0
 5132              		.cfi_startproc
