ARM GAS  C:\Users\master\AppData\Local\Temp\ccZqXObw.s 			page 1


   1              		.syntax unified
   2              		.cpu cortex-m3
   3              		.fpu softvfp
   4              		.eabi_attribute 20, 1
   5              		.eabi_attribute 21, 1
   6              		.eabi_attribute 23, 3
   7              		.eabi_attribute 24, 1
   8              		.eabi_attribute 25, 1
   9              		.eabi_attribute 26, 1
  10              		.eabi_attribute 30, 1
  11              		.eabi_attribute 34, 1
  12              		.eabi_attribute 18, 4
  13              		.thumb
  14              		.syntax unified
  15              		.file	"u8x8_debounce.c"
  16              		.text
  17              	.Ltext0:
  18              		.cfi_sections	.debug_frame
  19              		.section	.text.u8x8_find_first_diff,"ax",%progbits
  20              		.align	2
  21              		.thumb
  22              		.thumb_func
  24              	u8x8_find_first_diff:
  25              	.LFB1:
  26              		.file 1 "u8g2_lib/u8x8_debounce.c"
   1:u8g2_lib/u8x8_debounce.c **** /*
   2:u8g2_lib/u8x8_debounce.c **** 
   3:u8g2_lib/u8x8_debounce.c ****   u8x8_debounce.c
   4:u8g2_lib/u8x8_debounce.c ****   
   5:u8g2_lib/u8x8_debounce.c ****   Key/button simple debounce algorithm (Addon for u8x8)
   6:u8g2_lib/u8x8_debounce.c ****   
   7:u8g2_lib/u8x8_debounce.c ****   Universal 8bit Graphics Library (https://github.com/olikraus/u8g2/)
   8:u8g2_lib/u8x8_debounce.c **** 
   9:u8g2_lib/u8x8_debounce.c ****   Copyright (c) 2016, olikraus@gmail.com
  10:u8g2_lib/u8x8_debounce.c ****   All rights reserved.
  11:u8g2_lib/u8x8_debounce.c **** 
  12:u8g2_lib/u8x8_debounce.c ****   Redistribution and use in source and binary forms, with or without modification, 
  13:u8g2_lib/u8x8_debounce.c ****   are permitted provided that the following conditions are met:
  14:u8g2_lib/u8x8_debounce.c **** 
  15:u8g2_lib/u8x8_debounce.c ****   * Redistributions of source code must retain the above copyright notice, this list 
  16:u8g2_lib/u8x8_debounce.c ****     of conditions and the following disclaimer.
  17:u8g2_lib/u8x8_debounce.c ****     
  18:u8g2_lib/u8x8_debounce.c ****   * Redistributions in binary form must reproduce the above copyright notice, this 
  19:u8g2_lib/u8x8_debounce.c ****     list of conditions and the following disclaimer in the documentation and/or other 
  20:u8g2_lib/u8x8_debounce.c ****     materials provided with the distribution.
  21:u8g2_lib/u8x8_debounce.c **** 
  22:u8g2_lib/u8x8_debounce.c ****   THIS SOFTWARE IS PROVIDED BY THE COPYRIGHT HOLDERS AND 
  23:u8g2_lib/u8x8_debounce.c ****   CONTRIBUTORS "AS IS" AND ANY EXPRESS OR IMPLIED WARRANTIES, 
  24:u8g2_lib/u8x8_debounce.c ****   INCLUDING, BUT NOT LIMITED TO, THE IMPLIED WARRANTIES OF 
  25:u8g2_lib/u8x8_debounce.c ****   MERCHANTABILITY AND FITNESS FOR A PARTICULAR PURPOSE ARE 
  26:u8g2_lib/u8x8_debounce.c ****   DISCLAIMED. IN NO EVENT SHALL THE COPYRIGHT HOLDER OR 
  27:u8g2_lib/u8x8_debounce.c ****   CONTRIBUTORS BE LIABLE FOR ANY DIRECT, INDIRECT, INCIDENTAL, 
  28:u8g2_lib/u8x8_debounce.c ****   SPECIAL, EXEMPLARY, OR CONSEQUENTIAL DAMAGES (INCLUDING, BUT 
  29:u8g2_lib/u8x8_debounce.c ****   NOT LIMITED TO, PROCUREMENT OF SUBSTITUTE GOODS OR SERVICES; 
  30:u8g2_lib/u8x8_debounce.c ****   LOSS OF USE, DATA, OR PROFITS; OR BUSINESS INTERRUPTION) HOWEVER 
  31:u8g2_lib/u8x8_debounce.c ****   CAUSED AND ON ANY THEORY OF LIABILITY, WHETHER IN CONTRACT, 
  32:u8g2_lib/u8x8_debounce.c ****   STRICT LIABILITY, OR TORT (INCLUDING NEGLIGENCE OR OTHERWISE) 
ARM GAS  C:\Users\master\AppData\Local\Temp\ccZqXObw.s 			page 2


  33:u8g2_lib/u8x8_debounce.c ****   ARISING IN ANY WAY OUT OF THE USE OF THIS SOFTWARE, EVEN IF 
  34:u8g2_lib/u8x8_debounce.c ****   ADVISED OF THE POSSIBILITY OF SUCH DAMAGE.  
  35:u8g2_lib/u8x8_debounce.c ****   
  36:u8g2_lib/u8x8_debounce.c **** */
  37:u8g2_lib/u8x8_debounce.c **** 
  38:u8g2_lib/u8x8_debounce.c **** #include "u8x8.h"
  39:u8g2_lib/u8x8_debounce.c **** 
  40:u8g2_lib/u8x8_debounce.c **** static uint8_t u8x8_read_pin_state(u8x8_t *u8x8)
  41:u8g2_lib/u8x8_debounce.c **** {
  42:u8g2_lib/u8x8_debounce.c ****   uint8_t i;
  43:u8g2_lib/u8x8_debounce.c ****   uint8_t pin_state;
  44:u8g2_lib/u8x8_debounce.c ****   
  45:u8g2_lib/u8x8_debounce.c ****   pin_state = 255;	/* be compatible with the setup of the default pin setup, which is 255 */
  46:u8g2_lib/u8x8_debounce.c ****   for( i = 0; i < U8X8_PIN_INPUT_CNT; i++ )
  47:u8g2_lib/u8x8_debounce.c ****   {
  48:u8g2_lib/u8x8_debounce.c ****     pin_state <<= 1;
  49:u8g2_lib/u8x8_debounce.c ****     
  50:u8g2_lib/u8x8_debounce.c ****     /* the callback function should put the return value into this variable */
  51:u8g2_lib/u8x8_debounce.c ****     u8x8->gpio_result = 1;
  52:u8g2_lib/u8x8_debounce.c ****     u8x8_gpio_call(u8x8, U8X8_MSG_GPIO(i+U8X8_PIN_OUTPUT_CNT), 0);
  53:u8g2_lib/u8x8_debounce.c ****     pin_state |= u8x8->gpio_result & 1;
  54:u8g2_lib/u8x8_debounce.c ****   }
  55:u8g2_lib/u8x8_debounce.c ****   
  56:u8g2_lib/u8x8_debounce.c ****   return pin_state;
  57:u8g2_lib/u8x8_debounce.c **** }
  58:u8g2_lib/u8x8_debounce.c **** 
  59:u8g2_lib/u8x8_debounce.c **** /*
  60:u8g2_lib/u8x8_debounce.c ****   return 0 to U8X8_PIN_INPUT_CNT-1 if there is a difference
  61:u8g2_lib/u8x8_debounce.c ****   return U8X8_PIN_INPUT_CNT if there is no difference
  62:u8g2_lib/u8x8_debounce.c **** */
  63:u8g2_lib/u8x8_debounce.c **** static uint8_t u8x8_find_first_diff(uint8_t a, uint8_t b)
  64:u8g2_lib/u8x8_debounce.c **** {
  27              		.loc 1 64 0
  28              		.cfi_startproc
  29              		@ args = 0, pretend = 0, frame = 0
  30              		@ frame_needed = 0, uses_anonymous_args = 0
  31              		@ link register save eliminated.
  32              	.LVL0:
  33 0000 10B4     		push	{r4}
  34              	.LCFI0:
  35              		.cfi_def_cfa_offset 4
  36              		.cfi_offset 4, -4
  37              	.LVL1:
  65:u8g2_lib/u8x8_debounce.c ****   uint8_t mask;
  66:u8g2_lib/u8x8_debounce.c ****   uint8_t i;
  67:u8g2_lib/u8x8_debounce.c ****   mask = 1;
  68:u8g2_lib/u8x8_debounce.c ****   i = U8X8_PIN_INPUT_CNT;
  38              		.loc 1 68 0
  39 0002 0623     		movs	r3, #6
  67:u8g2_lib/u8x8_debounce.c ****   i = U8X8_PIN_INPUT_CNT;
  40              		.loc 1 67 0
  41 0004 0122     		movs	r2, #1
  42              	.LVL2:
  43              	.L3:
  69:u8g2_lib/u8x8_debounce.c ****   do
  70:u8g2_lib/u8x8_debounce.c ****   {
  71:u8g2_lib/u8x8_debounce.c ****     i--;
ARM GAS  C:\Users\master\AppData\Local\Temp\ccZqXObw.s 			page 3


  44              		.loc 1 71 0
  45 0006 013B     		subs	r3, r3, #1
  46              	.LVL3:
  47 0008 DBB2     		uxtb	r3, r3
  48              	.LVL4:
  72:u8g2_lib/u8x8_debounce.c ****     if ( (a & mask) != (b & mask) )
  49              		.loc 1 72 0
  50 000a 80EA0104 		eor	r4, r0, r1
  51 000e 2242     		tst	r2, r4
  52 0010 05D1     		bne	.L4
  73:u8g2_lib/u8x8_debounce.c ****       return i;
  74:u8g2_lib/u8x8_debounce.c ****     mask <<= 1;
  53              		.loc 1 74 0
  54 0012 5200     		lsls	r2, r2, #1
  55              	.LVL5:
  56 0014 D2B2     		uxtb	r2, r2
  57              	.LVL6:
  75:u8g2_lib/u8x8_debounce.c ****   } while( i > 0 );
  58              		.loc 1 75 0
  59 0016 002B     		cmp	r3, #0
  60 0018 F5D1     		bne	.L3
  76:u8g2_lib/u8x8_debounce.c ****   return U8X8_PIN_INPUT_CNT;
  61              		.loc 1 76 0
  62 001a 0620     		movs	r0, #6
  63              	.LVL7:
  64 001c 00E0     		b	.L2
  65              	.LVL8:
  66              	.L4:
  73:u8g2_lib/u8x8_debounce.c ****       return i;
  67              		.loc 1 73 0
  68 001e 1846     		mov	r0, r3
  69              	.LVL9:
  70              	.L2:
  77:u8g2_lib/u8x8_debounce.c **** }
  71              		.loc 1 77 0
  72 0020 10BC     		pop	{r4}
  73              	.LCFI1:
  74              		.cfi_restore 4
  75              		.cfi_def_cfa_offset 0
  76 0022 7047     		bx	lr
  77              		.cfi_endproc
  78              	.LFE1:
  80              		.section	.text.u8x8_read_pin_state,"ax",%progbits
  81              		.align	2
  82              		.thumb
  83              		.thumb_func
  85              	u8x8_read_pin_state:
  86              	.LFB0:
  41:u8g2_lib/u8x8_debounce.c ****   uint8_t i;
  87              		.loc 1 41 0
  88              		.cfi_startproc
  89              		@ args = 0, pretend = 0, frame = 0
  90              		@ frame_needed = 0, uses_anonymous_args = 0
  91              	.LVL10:
  92 0000 70B5     		push	{r4, r5, r6, lr}
  93              	.LCFI2:
  94              		.cfi_def_cfa_offset 16
ARM GAS  C:\Users\master\AppData\Local\Temp\ccZqXObw.s 			page 4


  95              		.cfi_offset 4, -16
  96              		.cfi_offset 5, -12
  97              		.cfi_offset 6, -8
  98              		.cfi_offset 14, -4
  99 0002 0646     		mov	r6, r0
 100              	.LVL11:
  45:u8g2_lib/u8x8_debounce.c ****   for( i = 0; i < U8X8_PIN_INPUT_CNT; i++ )
 101              		.loc 1 45 0
 102 0004 FF20     		movs	r0, #255
 103              	.LVL12:
  46:u8g2_lib/u8x8_debounce.c ****   {
 104              		.loc 1 46 0
 105 0006 0024     		movs	r4, #0
 106 0008 12E0     		b	.L7
 107              	.LVL13:
 108              	.L8:
  48:u8g2_lib/u8x8_debounce.c ****     
 109              		.loc 1 48 0 discriminator 3
 110 000a 4000     		lsls	r0, r0, #1
 111              	.LVL14:
 112 000c C5B2     		uxtb	r5, r0
 113              	.LVL15:
  51:u8g2_lib/u8x8_debounce.c ****     u8x8_gpio_call(u8x8, U8X8_MSG_GPIO(i+U8X8_PIN_OUTPUT_CNT), 0);
 114              		.loc 1 51 0 discriminator 3
 115 000e 0123     		movs	r3, #1
 116 0010 86F82730 		strb	r3, [r6, #39]
  52:u8g2_lib/u8x8_debounce.c ****     pin_state |= u8x8->gpio_result & 1;
 117              		.loc 1 52 0 discriminator 3
 118 0014 04F15001 		add	r1, r4, #80
 119 0018 0022     		movs	r2, #0
 120 001a C9B2     		uxtb	r1, r1
 121 001c 3046     		mov	r0, r6
 122 001e FFF7FEFF 		bl	u8x8_gpio_call
 123              	.LVL16:
  53:u8g2_lib/u8x8_debounce.c ****   }
 124              		.loc 1 53 0 discriminator 3
 125 0022 96F82700 		ldrb	r0, [r6, #39]	@ zero_extendqisi2
 126 0026 00F00100 		and	r0, r0, #1
 127 002a 2843     		orrs	r0, r0, r5
 128              	.LVL17:
  46:u8g2_lib/u8x8_debounce.c ****   {
 129              		.loc 1 46 0 discriminator 3
 130 002c 0134     		adds	r4, r4, #1
 131              	.LVL18:
 132 002e E4B2     		uxtb	r4, r4
 133              	.LVL19:
 134              	.L7:
  46:u8g2_lib/u8x8_debounce.c ****   {
 135              		.loc 1 46 0 is_stmt 0 discriminator 1
 136 0030 052C     		cmp	r4, #5
 137 0032 EAD9     		bls	.L8
  57:u8g2_lib/u8x8_debounce.c **** 
 138              		.loc 1 57 0 is_stmt 1
 139 0034 70BD     		pop	{r4, r5, r6, pc}
 140              		.cfi_endproc
 141              	.LFE0:
 143 0036 00BF     		.section	.text.u8x8_GetMenuEvent,"ax",%progbits
ARM GAS  C:\Users\master\AppData\Local\Temp\ccZqXObw.s 			page 5


 144              		.align	2
 145              		.weak	u8x8_GetMenuEvent
 146              		.thumb
 147              		.thumb_func
 149              	u8x8_GetMenuEvent:
 150              	.LFB2:
  78:u8g2_lib/u8x8_debounce.c **** 
  79:u8g2_lib/u8x8_debounce.c **** /*
  80:u8g2_lib/u8x8_debounce.c ****   State A:
  81:u8g2_lib/u8x8_debounce.c ****     u8x8->debounce_last_pin_state == current_state 
  82:u8g2_lib/u8x8_debounce.c ****       --> State A
  83:u8g2_lib/u8x8_debounce.c ****     u8x8->debounce_last_pin_state != current_state 
  84:u8g2_lib/u8x8_debounce.c ****       --> u8x8->debounce_last_pin_state = current_state 
  85:u8g2_lib/u8x8_debounce.c ****       --> State B + cnt
  86:u8g2_lib/u8x8_debounce.c **** 
  87:u8g2_lib/u8x8_debounce.c ****   State B + cnt
  88:u8g2_lib/u8x8_debounce.c ****     --> state--
  89:u8g2_lib/u8x8_debounce.c **** 
  90:u8g2_lib/u8x8_debounce.c ****   State B
  91:u8g2_lib/u8x8_debounce.c ****     u8x8->debounce_last_pin_state == current_state 
  92:u8g2_lib/u8x8_debounce.c ****       --> keypress detected
  93:u8g2_lib/u8x8_debounce.c ****       --> State C
  94:u8g2_lib/u8x8_debounce.c ****     u8x8->debounce_last_pin_state != current_state 
  95:u8g2_lib/u8x8_debounce.c ****       --> State A
  96:u8g2_lib/u8x8_debounce.c **** 
  97:u8g2_lib/u8x8_debounce.c ****   State C
  98:u8g2_lib/u8x8_debounce.c ****     u8x8->debounce_last_pin_state == current_state 
  99:u8g2_lib/u8x8_debounce.c ****       --> State C
 100:u8g2_lib/u8x8_debounce.c ****     u8x8->debounce_last_pin_state != current_state 
 101:u8g2_lib/u8x8_debounce.c ****       --> State A
 102:u8g2_lib/u8x8_debounce.c **** 
 103:u8g2_lib/u8x8_debounce.c **** */
 104:u8g2_lib/u8x8_debounce.c **** 
 105:u8g2_lib/u8x8_debounce.c **** #ifdef __unix__xxxxxx_THIS_IS_DISABLED
 106:u8g2_lib/u8x8_debounce.c **** 
 107:u8g2_lib/u8x8_debounce.c **** #include <stdio.h>
 108:u8g2_lib/u8x8_debounce.c **** #include <stdlib.h>
 109:u8g2_lib/u8x8_debounce.c **** uint8_t u8x8_GetMenuEvent(u8x8_t *u8x8)
 110:u8g2_lib/u8x8_debounce.c **** {
 111:u8g2_lib/u8x8_debounce.c ****     int c;
 112:u8g2_lib/u8x8_debounce.c ****     c = getc(stdin);
 113:u8g2_lib/u8x8_debounce.c ****     switch(c)
 114:u8g2_lib/u8x8_debounce.c ****     {
 115:u8g2_lib/u8x8_debounce.c ****         case 'n':
 116:u8g2_lib/u8x8_debounce.c ****             return  U8X8_MSG_GPIO_MENU_NEXT;
 117:u8g2_lib/u8x8_debounce.c ****         case 'p':
 118:u8g2_lib/u8x8_debounce.c ****             return  U8X8_MSG_GPIO_MENU_PREV;
 119:u8g2_lib/u8x8_debounce.c ****         case 's':
 120:u8g2_lib/u8x8_debounce.c ****             return  U8X8_MSG_GPIO_MENU_SELECT;
 121:u8g2_lib/u8x8_debounce.c ****         case 'h':
 122:u8g2_lib/u8x8_debounce.c ****             return  U8X8_MSG_GPIO_MENU_HOME;
 123:u8g2_lib/u8x8_debounce.c ****         case 'x':
 124:u8g2_lib/u8x8_debounce.c ****             exit(0);
 125:u8g2_lib/u8x8_debounce.c ****         default:
 126:u8g2_lib/u8x8_debounce.c ****             puts("press n, p, s, h or x");
 127:u8g2_lib/u8x8_debounce.c ****             break;
 128:u8g2_lib/u8x8_debounce.c ****     }
ARM GAS  C:\Users\master\AppData\Local\Temp\ccZqXObw.s 			page 6


 129:u8g2_lib/u8x8_debounce.c ****     return 0;
 130:u8g2_lib/u8x8_debounce.c **** }
 131:u8g2_lib/u8x8_debounce.c **** 
 132:u8g2_lib/u8x8_debounce.c **** 
 133:u8g2_lib/u8x8_debounce.c **** #else  /* __unix__ */
 134:u8g2_lib/u8x8_debounce.c **** 
 135:u8g2_lib/u8x8_debounce.c **** 
 136:u8g2_lib/u8x8_debounce.c **** #define U8X8_DEBOUNCE_WAIT 2
 137:u8g2_lib/u8x8_debounce.c **** /* do debounce and return a GPIO msg which indicates the event */
 138:u8g2_lib/u8x8_debounce.c **** /* returns 0, if there is no event */
 139:u8g2_lib/u8x8_debounce.c **** #if defined(__GNUC__) && !defined(__CYGWIN__)
 140:u8g2_lib/u8x8_debounce.c **** # pragma weak  u8x8_GetMenuEvent
 141:u8g2_lib/u8x8_debounce.c **** #endif
 142:u8g2_lib/u8x8_debounce.c **** uint8_t u8x8_GetMenuEvent(u8x8_t *u8x8)
 143:u8g2_lib/u8x8_debounce.c **** {
 151              		.loc 1 143 0
 152              		.cfi_startproc
 153              		@ args = 0, pretend = 0, frame = 0
 154              		@ frame_needed = 0, uses_anonymous_args = 0
 155              	.LVL20:
 156 0000 10B5     		push	{r4, lr}
 157              	.LCFI3:
 158              		.cfi_def_cfa_offset 8
 159              		.cfi_offset 4, -8
 160              		.cfi_offset 14, -4
 161 0002 0446     		mov	r4, r0
 162              	.LVL21:
 144:u8g2_lib/u8x8_debounce.c ****   uint8_t pin_state;
 145:u8g2_lib/u8x8_debounce.c ****   uint8_t result_msg = 0;	/* invalid message, no event */
 146:u8g2_lib/u8x8_debounce.c ****   
 147:u8g2_lib/u8x8_debounce.c ****   pin_state = u8x8_read_pin_state(u8x8);
 163              		.loc 1 147 0
 164 0004 FFF7FEFF 		bl	u8x8_read_pin_state
 165              	.LVL22:
 148:u8g2_lib/u8x8_debounce.c ****   
 149:u8g2_lib/u8x8_debounce.c ****   /* States A, B, C & D are encoded in the upper 4 bit*/
 150:u8g2_lib/u8x8_debounce.c ****   switch(u8x8->debounce_state)
 166              		.loc 1 150 0
 167 0008 94F82A30 		ldrb	r3, [r4, #42]	@ zero_extendqisi2
 168 000c 102B     		cmp	r3, #16
 169 000e 10D0     		beq	.L12
 170 0010 01D8     		bhi	.L13
 171 0012 2BB1     		cbz	r3, .L14
 172 0014 38E0     		b	.L11
 173              	.L13:
 174 0016 202B     		cmp	r3, #32
 175 0018 1AD0     		beq	.L15
 176 001a 302B     		cmp	r3, #48
 177 001c 25D0     		beq	.L16
 178 001e 33E0     		b	.L11
 179              	.L14:
 151:u8g2_lib/u8x8_debounce.c ****   {
 152:u8g2_lib/u8x8_debounce.c ****     case 0x00:	/* State A, default state */
 153:u8g2_lib/u8x8_debounce.c ****       if ( u8x8->debounce_default_pin_state != pin_state )
 180              		.loc 1 153 0
 181 0020 94F82830 		ldrb	r3, [r4, #40]	@ zero_extendqisi2
 182 0024 9842     		cmp	r0, r3
ARM GAS  C:\Users\master\AppData\Local\Temp\ccZqXObw.s 			page 7


 183 0026 34D0     		beq	.L20
 154:u8g2_lib/u8x8_debounce.c ****       {
 155:u8g2_lib/u8x8_debounce.c **** 	//u8x8->debounce_last_pin_state = pin_state;
 156:u8g2_lib/u8x8_debounce.c **** 	u8x8->debounce_state = 0x010 + U8X8_DEBOUNCE_WAIT;
 184              		.loc 1 156 0
 185 0028 1223     		movs	r3, #18
 186 002a 84F82A30 		strb	r3, [r4, #42]
 145:u8g2_lib/u8x8_debounce.c ****   
 187              		.loc 1 145 0
 188 002e 0020     		movs	r0, #0
 189              	.LVL23:
 190 0030 10BD     		pop	{r4, pc}
 191              	.LVL24:
 192              	.L12:
 157:u8g2_lib/u8x8_debounce.c ****       }
 158:u8g2_lib/u8x8_debounce.c ****       break;
 159:u8g2_lib/u8x8_debounce.c ****     case 0x10:	/* State B */
 160:u8g2_lib/u8x8_debounce.c ****       //if ( u8x8->debounce_last_pin_state != pin_state )
 161:u8g2_lib/u8x8_debounce.c ****       if ( u8x8->debounce_default_pin_state == pin_state )
 193              		.loc 1 161 0
 194 0032 94F82830 		ldrb	r3, [r4, #40]	@ zero_extendqisi2
 195 0036 9842     		cmp	r0, r3
 196 0038 03D1     		bne	.L18
 162:u8g2_lib/u8x8_debounce.c ****       {
 163:u8g2_lib/u8x8_debounce.c **** 	u8x8->debounce_state = 0x00;	/* back to state A */
 197              		.loc 1 163 0
 198 003a 0020     		movs	r0, #0
 199              	.LVL25:
 200 003c 84F82A00 		strb	r0, [r4, #42]
 201 0040 10BD     		pop	{r4, pc}
 202              	.LVL26:
 203              	.L18:
 164:u8g2_lib/u8x8_debounce.c ****       }
 165:u8g2_lib/u8x8_debounce.c ****       else
 166:u8g2_lib/u8x8_debounce.c ****       {
 167:u8g2_lib/u8x8_debounce.c **** 	/* keypress detected */
 168:u8g2_lib/u8x8_debounce.c **** 	u8x8->debounce_last_pin_state = pin_state;
 204              		.loc 1 168 0
 205 0042 84F82900 		strb	r0, [r4, #41]
 169:u8g2_lib/u8x8_debounce.c **** 	//result_msg = U8X8_MSG_GPIO_MENU_NEXT;
 170:u8g2_lib/u8x8_debounce.c **** 	u8x8->debounce_state = 0x020 + U8X8_DEBOUNCE_WAIT;	/* got to state C */	
 206              		.loc 1 170 0
 207 0046 2223     		movs	r3, #34
 208 0048 84F82A30 		strb	r3, [r4, #42]
 145:u8g2_lib/u8x8_debounce.c ****   
 209              		.loc 1 145 0
 210 004c 0020     		movs	r0, #0
 211              	.LVL27:
 212 004e 10BD     		pop	{r4, pc}
 213              	.LVL28:
 214              	.L15:
 171:u8g2_lib/u8x8_debounce.c ****       }
 172:u8g2_lib/u8x8_debounce.c ****       break;
 173:u8g2_lib/u8x8_debounce.c ****       
 174:u8g2_lib/u8x8_debounce.c ****     case 0x20:	/* State C */
 175:u8g2_lib/u8x8_debounce.c ****       if ( u8x8->debounce_last_pin_state != pin_state )
 215              		.loc 1 175 0
ARM GAS  C:\Users\master\AppData\Local\Temp\ccZqXObw.s 			page 8


 216 0050 94F82930 		ldrb	r3, [r4, #41]	@ zero_extendqisi2
 217 0054 9842     		cmp	r0, r3
 218 0056 03D0     		beq	.L19
 176:u8g2_lib/u8x8_debounce.c ****       {
 177:u8g2_lib/u8x8_debounce.c **** 	u8x8->debounce_state = 0x00;	/* back to state A */
 219              		.loc 1 177 0
 220 0058 0020     		movs	r0, #0
 221              	.LVL29:
 222 005a 84F82A00 		strb	r0, [r4, #42]
 223 005e 10BD     		pop	{r4, pc}
 224              	.LVL30:
 225              	.L19:
 178:u8g2_lib/u8x8_debounce.c ****       }
 179:u8g2_lib/u8x8_debounce.c ****       else
 180:u8g2_lib/u8x8_debounce.c ****       {
 181:u8g2_lib/u8x8_debounce.c **** 	u8x8->debounce_state = 0x030;	/* got to state D */	
 226              		.loc 1 181 0
 227 0060 3023     		movs	r3, #48
 228 0062 84F82A30 		strb	r3, [r4, #42]
 145:u8g2_lib/u8x8_debounce.c ****   
 229              		.loc 1 145 0
 230 0066 0020     		movs	r0, #0
 231              	.LVL31:
 232 0068 10BD     		pop	{r4, pc}
 233              	.LVL32:
 234              	.L16:
 182:u8g2_lib/u8x8_debounce.c ****       }
 183:u8g2_lib/u8x8_debounce.c ****       break;
 184:u8g2_lib/u8x8_debounce.c ****       
 185:u8g2_lib/u8x8_debounce.c ****     case 0x30:	/* State D */
 186:u8g2_lib/u8x8_debounce.c ****       /* wait until key release */
 187:u8g2_lib/u8x8_debounce.c ****       if ( u8x8->debounce_default_pin_state == pin_state )
 235              		.loc 1 187 0
 236 006a 94F82830 		ldrb	r3, [r4, #40]	@ zero_extendqisi2
 237 006e 9842     		cmp	r0, r3
 238 0070 11D1     		bne	.L21
 188:u8g2_lib/u8x8_debounce.c ****       {
 189:u8g2_lib/u8x8_debounce.c **** 	u8x8->debounce_state = 0x00;	/* back to state A */
 239              		.loc 1 189 0
 240 0072 0022     		movs	r2, #0
 241 0074 84F82A20 		strb	r2, [r4, #42]
 190:u8g2_lib/u8x8_debounce.c **** 	result_msg = U8X8_MSG_GPIO(u8x8_find_first_diff(u8x8->debounce_default_pin_state, u8x8->debounce_l
 242              		.loc 1 190 0
 243 0078 94F82910 		ldrb	r1, [r4, #41]	@ zero_extendqisi2
 244 007c 1846     		mov	r0, r3
 245              	.LVL33:
 246 007e FFF7FEFF 		bl	u8x8_find_first_diff
 247              	.LVL34:
 248 0082 5030     		adds	r0, r0, #80
 249 0084 C0B2     		uxtb	r0, r0
 250              	.LVL35:
 251 0086 10BD     		pop	{r4, pc}
 252              	.LVL36:
 253              	.L11:
 191:u8g2_lib/u8x8_debounce.c ****       }
 192:u8g2_lib/u8x8_debounce.c ****       else
 193:u8g2_lib/u8x8_debounce.c ****       {
ARM GAS  C:\Users\master\AppData\Local\Temp\ccZqXObw.s 			page 9


 194:u8g2_lib/u8x8_debounce.c **** 	//result_msg = U8X8_MSG_GPIO_MENU_NEXT;
 195:u8g2_lib/u8x8_debounce.c **** 	// maybe implement autorepeat here 
 196:u8g2_lib/u8x8_debounce.c ****       }
 197:u8g2_lib/u8x8_debounce.c ****       break;
 198:u8g2_lib/u8x8_debounce.c ****     default:
 199:u8g2_lib/u8x8_debounce.c ****       u8x8->debounce_state--;	/* count down, until there is a valid state */
 254              		.loc 1 199 0
 255 0088 013B     		subs	r3, r3, #1
 256 008a 84F82A30 		strb	r3, [r4, #42]
 145:u8g2_lib/u8x8_debounce.c ****   
 257              		.loc 1 145 0
 258 008e 0020     		movs	r0, #0
 259              	.LVL37:
 200:u8g2_lib/u8x8_debounce.c ****       break;
 260              		.loc 1 200 0
 261 0090 10BD     		pop	{r4, pc}
 262              	.LVL38:
 263              	.L20:
 145:u8g2_lib/u8x8_debounce.c ****   
 264              		.loc 1 145 0
 265 0092 0020     		movs	r0, #0
 266              	.LVL39:
 267 0094 10BD     		pop	{r4, pc}
 268              	.LVL40:
 269              	.L21:
 270 0096 0020     		movs	r0, #0
 271              	.LVL41:
 201:u8g2_lib/u8x8_debounce.c ****   }
 202:u8g2_lib/u8x8_debounce.c ****   return result_msg;
 203:u8g2_lib/u8x8_debounce.c **** }
 272              		.loc 1 203 0
 273 0098 10BD     		pop	{r4, pc}
 274              		.cfi_endproc
 275              	.LFE2:
 277 009a 00BF     		.text
 278              	.Letext0:
 279              		.file 2 "c:\\program files (x86)\\gnu tools arm embedded\\5.4 2016q3\\arm-none-eabi\\include\\mach
 280              		.file 3 "c:\\program files (x86)\\gnu tools arm embedded\\5.4 2016q3\\arm-none-eabi\\include\\sys\
 281              		.file 4 "u8g2_lib/u8x8.h"
ARM GAS  C:\Users\master\AppData\Local\Temp\ccZqXObw.s 			page 10

